
main.elf:     file format elf32-msp430


Disassembly of section .text:

0000f800 <__init_stack>:
    f800:	31 40 80 02 	mov	#640,	r1	;#0x0280

0000f804 <__low_level_init>:
    f804:	15 42 20 01 	mov	&0x0120,r5	
    f808:	75 f3       	and.b	#-1,	r5	;r3 As==11
    f80a:	35 d0 08 5a 	bis	#23048,	r5	;#0x5a08

0000f80e <__do_copy_data>:
    f80e:	3f 40 00 00 	mov	#0,	r15	;#0x0000
    f812:	0f 93       	tst	r15		
    f814:	07 24       	jz	$+16     	;abs 0xf824
    f816:	82 45 20 01 	mov	r5,	&0x0120	
    f81a:	2f 83       	decd	r15		
    f81c:	9f 4f 9e fb 	mov	-1122(r15),512(r15);0xfb9e(r15), 0x0200(r15)
    f820:	00 02 
    f822:	f9 23       	jnz	$-12     	;abs 0xf816

0000f824 <__do_clear_bss>:
    f824:	3f 40 04 00 	mov	#4,	r15	;#0x0004
    f828:	0f 93       	tst	r15		
    f82a:	06 24       	jz	$+14     	;abs 0xf838
    f82c:	82 45 20 01 	mov	r5,	&0x0120	
    f830:	1f 83       	dec	r15		
    f832:	cf 43 00 02 	mov.b	#0,	512(r15);r3 As==00, 0x0200(r15)
    f836:	fa 23       	jnz	$-10     	;abs 0xf82c

0000f838 <main>:
	TACTL = TASSEL_2 + MC_1;   // SMCLK, up mode
}

int main(void){
	char data;
	WDTCTL = WDTPW + WDTHOLD;               // Stop WDT
    f838:	b2 40 80 5a 	mov	#23168,	&0x0120	;#0x5a80
    f83c:	20 01 

	BCSCTL1 = CALBC1_1MHZ; // Set range
    f83e:	d2 42 ff 10 	mov.b	&0x10ff,&0x0057	
    f842:	57 00 
	DCOCTL = CALDCO_1MHZ; // SMCLK = DCO = 1MHz
    f844:	d2 42 fe 10 	mov.b	&0x10fe,&0x0056	
    f848:	56 00 

	P1SEL |= TXD | PIN_BL;
    f84a:	f2 d0 06 00 	bis.b	#6,	&0x0026	;#0x0006
    f84e:	26 00 
	P1DIR |= PIN_RESET | TXD | PIN_BL;
    f850:	f2 d0 07 00 	bis.b	#7,	&0x0022	;#0x0007
    f854:	22 00 
	P1DIR |= PIN_NCS;
    f856:	f2 d0 10 00 	bis.b	#16,	&0x0022	;#0x0010
    f85a:	22 00 
	P1DIR |= PIN_MOSI;
    f85c:	f2 d0 40 00 	bis.b	#64,	&0x0022	;#0x0040
    f860:	22 00 
	P1DIR |= PIN_SCLK;
    f862:	f2 d0 20 00 	bis.b	#32,	&0x0022	;#0x0020
    f866:	22 00 

	bl_init();
    f868:	b0 12 da f9 	call	#0xf9da	

	P1OUT |= PIN_RESET;
    f86c:	d2 d3 21 00 	bis.b	#1,	&0x0021	;r3 As==01
	delay_ms(3000); // Wait for power to become stable.
    f870:	3f 40 b8 0b 	mov	#3000,	r15	;#0x0bb8
    f874:	b0 12 00 fb 	call	#0xfb00	

	P1OUT &= ~PIN_RESET;
    f878:	f2 f0 fe ff 	and.b	#-2,	&0x0021	;#0xfffe
    f87c:	21 00 
	delay_ms(1); // Page 13 in manual for LCD
    f87e:	1f 43       	mov	#1,	r15	;r3 As==01
    f880:	b0 12 00 fb 	call	#0xfb00	
	P1OUT |= PIN_RESET;
    f884:	d2 d3 21 00 	bis.b	#1,	&0x0021	;r3 As==01
	delay_ms(6); // Page 13 in manual for LCD
    f888:	3f 40 06 00 	mov	#6,	r15	;#0x0006
    f88c:	b0 12 00 fb 	call	#0xfb00	
	__bis_SR_register(GIE); 	// interrupts enabled
    f890:	32 d2       	eint			

	//send("Start\n");
	LcdInit();
    f892:	b0 12 34 fb 	call	#0xfb34	
	//send("Done\n");

	

	while(1){
		delay_ms(10000);
    f896:	3f 40 10 27 	mov	#10000,	r15	;#0x2710
    f89a:	b0 12 00 fb 	call	#0xfb00	
    f89e:	fb 3f       	jmp	$-8      	;abs 0xf896

0000f8a0 <__stop_progExec__>:
    f8a0:	32 d0 f0 00 	bis	#240,	r2	;#0x00f0
    f8a4:	fd 3f       	jmp	$-4      	;abs 0xf8a0

0000f8a6 <__ctors_end>:
    f8a6:	30 40 9c fb 	br	#0xfb9c	

0000f8aa <LcdTest>:
	LcdWrite(LCD_C, 0xB3, 0); // Set RGB interface related register (B3h)
	LcdWrite(LCD_D, 0x01, 0); // EPL + VSPL + HSPL + DPL
	P1OUT |= PIN_NCS; 
	*/

}
    f8aa:	30 41       	ret			

0000f8ac <LcdWrite>:


// Write data to the display
void LcdWrite(char dnc, char data, char cs){
    f8ac:	0b 12       	push	r11		
	int i;

	if(cs)
    f8ae:	4d 93       	tst.b	r13		
    f8b0:	03 24       	jz	$+8      	;abs 0xf8b8
		P1OUT &= ~PIN_NCS; // Select Chip Enable low
    f8b2:	f2 f0 ef ff 	and.b	#-17,	&0x0021	;#0xffef
    f8b6:	21 00 

	// Output the control bit DNC
	if(dnc)
    f8b8:	4f 93       	tst.b	r15		
    f8ba:	04 24       	jz	$+10     	;abs 0xf8c4
		P1OUT |= PIN_MOSI;
    f8bc:	f2 d0 40 00 	bis.b	#64,	&0x0021	;#0x0040
    f8c0:	21 00 
    f8c2:	03 3c       	jmp	$+8      	;abs 0xf8ca
	else
		P1OUT &= ~PIN_MOSI;
    f8c4:	f2 f0 bf ff 	and.b	#-65,	&0x0021	;#0xffbf
    f8c8:	21 00 
	P1OUT &= ~PIN_SCLK; // Clock pin low
    f8ca:	f2 f0 df ff 	and.b	#-33,	&0x0021	;#0xffdf
    f8ce:	21 00 
	P1OUT |= PIN_SCLK; // Clock pin high
    f8d0:	f2 d0 20 00 	bis.b	#32,	&0x0021	;#0x0020
    f8d4:	21 00 
    f8d6:	3f 40 07 00 	mov	#7,	r15	;#0x0007

	// Output the data byte
	for(i=0; i<8; i++){
		if(data & (0x01<<(7-i)))
    f8da:	4c 4e       	mov.b	r14,	r12	
    f8dc:	8c 11       	sxt	r12		
    f8de:	0b 4f       	mov	r15,	r11	
    f8e0:	0b 93       	tst	r11		
    f8e2:	03 24       	jz	$+8      	;abs 0xf8ea
    f8e4:	0c 11       	rra	r12		
    f8e6:	1b 83       	dec	r11		
    f8e8:	fd 23       	jnz	$-4      	;abs 0xf8e4
    f8ea:	1c f3       	and	#1,	r12	;r3 As==01
    f8ec:	04 24       	jz	$+10     	;abs 0xf8f6
			P1OUT |= PIN_MOSI;
    f8ee:	f2 d0 40 00 	bis.b	#64,	&0x0021	;#0x0040
    f8f2:	21 00 
    f8f4:	03 3c       	jmp	$+8      	;abs 0xf8fc
		else
			P1OUT &= ~PIN_MOSI;
    f8f6:	f2 f0 bf ff 	and.b	#-65,	&0x0021	;#0xffbf
    f8fa:	21 00 
		P1OUT &= ~PIN_SCLK; // Clock pin low
    f8fc:	f2 f0 df ff 	and.b	#-33,	&0x0021	;#0xffdf
    f900:	21 00 
		P1OUT |= PIN_SCLK; // Clock pin high
    f902:	f2 d0 20 00 	bis.b	#32,	&0x0021	;#0x0020
    f906:	21 00 
    f908:	3f 53       	add	#-1,	r15	;r3 As==11
		P1OUT &= ~PIN_MOSI;
	P1OUT &= ~PIN_SCLK; // Clock pin low
	P1OUT |= PIN_SCLK; // Clock pin high

	// Output the data byte
	for(i=0; i<8; i++){
    f90a:	3f 93       	cmp	#-1,	r15	;r3 As==11
    f90c:	e6 23       	jnz	$-50     	;abs 0xf8da
			P1OUT &= ~PIN_MOSI;
		P1OUT &= ~PIN_SCLK; // Clock pin low
		P1OUT |= PIN_SCLK; // Clock pin high
	}

	if(cs)
    f90e:	4d 93       	tst.b	r13		
    f910:	03 24       	jz	$+8      	;abs 0xf918
		P1OUT |= PIN_NCS; // Select Chip Enable High
    f912:	f2 d0 10 00 	bis.b	#16,	&0x0021	;#0x0010
    f916:	21 00 

}
    f918:	3b 41       	pop	r11		
    f91a:	30 41       	ret			

0000f91c <LcdExtended>:


}

void LcdExtended(void){
	P1OUT &= ~PIN_NCS; // Select Chip Enable low
    f91c:	f2 f0 ef ff 	and.b	#-17,	&0x0021	;#0xffef
    f920:	21 00 
	LcdWrite(LCD_C, 0xB9, 0); // Set extended commands
    f922:	4d 43       	clr.b	r13		
    f924:	7e 40 b9 ff 	mov.b	#-71,	r14	;#0xffb9
    f928:	4f 4d       	mov.b	r13,	r15	
    f92a:	b0 12 ac f8 	call	#0xf8ac	
	LcdWrite(LCD_D, 0xFF, 0);
    f92e:	4d 43       	clr.b	r13		
    f930:	7e 43       	mov.b	#-1,	r14	;r3 As==11
    f932:	5f 43       	mov.b	#1,	r15	;r3 As==01
    f934:	b0 12 ac f8 	call	#0xf8ac	
	LcdWrite(LCD_D, 0x83, 0);
    f938:	4d 43       	clr.b	r13		
    f93a:	7e 40 83 ff 	mov.b	#-125,	r14	;#0xff83
    f93e:	5f 43       	mov.b	#1,	r15	;r3 As==01
    f940:	b0 12 ac f8 	call	#0xf8ac	
	LcdWrite(LCD_D, 0x63, 0);
    f944:	4d 43       	clr.b	r13		
    f946:	7e 40 63 00 	mov.b	#99,	r14	;#0x0063
    f94a:	5f 43       	mov.b	#1,	r15	;r3 As==01
    f94c:	b0 12 ac f8 	call	#0xf8ac	
	P1OUT |= PIN_NCS; // Select Chip Enable High
    f950:	f2 d0 10 00 	bis.b	#16,	&0x0021	;#0x0010
    f954:	21 00 
}
    f956:	30 41       	ret			

0000f958 <LcdGamma>:
	LcdWrite(LCD_C, 0x28, 1); // Sleep out command
	delay_ms(110);
	LcdWrite(LCD_C, 0x10, 1); // Display on command
}

void LcdGamma(void){
    f958:	0b 12       	push	r11		
	int i;
	P1OUT &= ~PIN_NCS; 
    f95a:	f2 f0 ef ff 	and.b	#-17,	&0x0021	;#0xffef
    f95e:	21 00 
	LcdWrite(LCD_C, 0xC1, 0); // Memory Access Control
    f960:	4d 43       	clr.b	r13		
    f962:	7e 40 c1 ff 	mov.b	#-63,	r14	;#0xffc1
    f966:	4f 4d       	mov.b	r13,	r15	
    f968:	b0 12 ac f8 	call	#0xf8ac	
	LcdWrite(LCD_D, 0x00, 0); // DCG_EN = 0
    f96c:	4d 43       	clr.b	r13		
    f96e:	4e 4d       	mov.b	r13,	r14	
    f970:	5f 43       	mov.b	#1,	r15	;r3 As==01
    f972:	b0 12 ac f8 	call	#0xf8ac	
	for(i=0; i<128; i++){
    f976:	0b 43       	clr	r11		
		LcdWrite(LCD_D, i*0x00, 0); // Gamma shit
    f978:	4d 43       	clr.b	r13		
    f97a:	4e 4d       	mov.b	r13,	r14	
    f97c:	5f 43       	mov.b	#1,	r15	;r3 As==01
    f97e:	b0 12 ac f8 	call	#0xf8ac	
void LcdGamma(void){
	int i;
	P1OUT &= ~PIN_NCS; 
	LcdWrite(LCD_C, 0xC1, 0); // Memory Access Control
	LcdWrite(LCD_D, 0x00, 0); // DCG_EN = 0
	for(i=0; i<128; i++){
    f982:	1b 53       	inc	r11		
    f984:	3b 90 80 00 	cmp	#128,	r11	;#0x0080
    f988:	f7 23       	jnz	$-16     	;abs 0xf978
		LcdWrite(LCD_D, 0x00, 0); // Gamma shit
	}
	for(i=43; i<=75; i++){
		LcdWrite(LCD_D, (i-0x43)*0x08, 0); // Gamma shit
	}*/
	P1OUT |= PIN_NCS; 
    f98a:	f2 d0 10 00 	bis.b	#16,	&0x0021	;#0x0010
    f98e:	21 00 


}
    f990:	3b 41       	pop	r11		
    f992:	30 41       	ret			

0000f994 <LcdRead>:
	if(cs)
		P1OUT |= PIN_NCS; // Select Chip Enable High

}

char LcdRead(char cs){
    f994:	0b 12       	push	r11		
    f996:	0a 12       	push	r10		
    f998:	4a 4f       	mov.b	r15,	r10	
    f99a:	3e 40 07 00 	mov	#7,	r14	;#0x0007
	int i;
	char data = 0;
    f99e:	4f 43       	clr.b	r15		
	// Get the data byte
	for(i=0; i<8; i++){
		P1OUT &= ~PIN_SCLK; // Clock pin low
		P1OUT |= PIN_SCLK; // Clock pin high
		if(P1IN & PIN_MISO){
			data += (0x01<<(7-i));
    f9a0:	1b 43       	mov	#1,	r11	;r3 As==01
	int i;
	char data = 0;

	// Get the data byte
	for(i=0; i<8; i++){
		P1OUT &= ~PIN_SCLK; // Clock pin low
    f9a2:	f2 f0 df ff 	and.b	#-33,	&0x0021	;#0xffdf
    f9a6:	21 00 
		P1OUT |= PIN_SCLK; // Clock pin high
    f9a8:	f2 d0 20 00 	bis.b	#32,	&0x0021	;#0x0020
    f9ac:	21 00 
		if(P1IN & PIN_MISO){
    f9ae:	c2 93 20 00 	tst.b	&0x0020	
    f9b2:	08 34       	jge	$+18     	;abs 0xf9c4
			data += (0x01<<(7-i));
    f9b4:	0c 4e       	mov	r14,	r12	
    f9b6:	0d 4b       	mov	r11,	r13	
    f9b8:	0c 93       	tst	r12		
    f9ba:	03 24       	jz	$+8      	;abs 0xf9c2
    f9bc:	0d 5d       	rla	r13		
    f9be:	1c 83       	dec	r12		
    f9c0:	fd 23       	jnz	$-4      	;abs 0xf9bc
    f9c2:	4f 5d       	add.b	r13,	r15	
    f9c4:	3e 53       	add	#-1,	r14	;r3 As==11
char LcdRead(char cs){
	int i;
	char data = 0;

	// Get the data byte
	for(i=0; i<8; i++){
    f9c6:	3e 93       	cmp	#-1,	r14	;r3 As==11
    f9c8:	ec 23       	jnz	$-38     	;abs 0xf9a2
		P1OUT |= PIN_SCLK; // Clock pin high
		if(P1IN & PIN_MISO){
			data += (0x01<<(7-i));
		}
	}
	if(cs)
    f9ca:	4a 93       	tst.b	r10		
    f9cc:	03 24       	jz	$+8      	;abs 0xf9d4
		P1OUT |= PIN_NCS; // Select Chip Enable High
    f9ce:	f2 d0 10 00 	bis.b	#16,	&0x0021	;#0x0010
    f9d2:	21 00 

	return data;
}
    f9d4:	3a 41       	pop	r10		
    f9d6:	3b 41       	pop	r11		
    f9d8:	30 41       	ret			

0000f9da <bl_init>:

void bl_init(){
	CCR0 = 10000-1;             // PWM Period
    f9da:	b2 40 0f 27 	mov	#9999,	&0x0172	;#0x270f
    f9de:	72 01 
	CCTL1 = OUTMOD_7;          // CCR1 reset/set
    f9e0:	b2 40 e0 00 	mov	#224,	&0x0164	;#0x00e0
    f9e4:	64 01 
	CCR1 = 2500;                // CCR1 PWM duty cycle
    f9e6:	b2 40 c4 09 	mov	#2500,	&0x0174	;#0x09c4
    f9ea:	74 01 
	TACTL = TASSEL_2 + MC_1;   // SMCLK, up mode
    f9ec:	b2 40 10 02 	mov	#528,	&0x0160	;#0x0210
    f9f0:	60 01 
}
    f9f2:	30 41       	ret			

0000f9f4 <Transmit>:

// Function Transmits Character from TXByte
void Transmit(char c){
	TXByte = c;

	CCTL0 = OUT; // TXD Idle as Mark
    f9f4:	a2 42 62 01 	mov	#4,	&0x0162	;r2 As==10
	TACTL = TASSEL_2 + MC_2; // SMCLK, continuous mode
    f9f8:	b2 40 20 02 	mov	#544,	&0x0160	;#0x0220
    f9fc:	60 01 

	BitCnt = 0xA; // Load Bit counter, 8 bits + ST/SP
    f9fe:	f2 40 0a 00 	mov.b	#10,	&0x0200	;#0x000a
    fa02:	00 02 
	CCR0 = TAR; // Initialize compare register
    fa04:	92 42 70 01 	mov	&0x0170,&0x0172	
    fa08:	72 01 

	CCR0 += Bit_time; // Set time till first bit
    fa0a:	b2 50 68 00 	add	#104,	&0x0172	;#0x0068
    fa0e:	72 01 
	}
}

// Function Transmits Character from TXByte
void Transmit(char c){
	TXByte = c;
    fa10:	8f 11       	sxt	r15		
	BitCnt = 0xA; // Load Bit counter, 8 bits + ST/SP
	CCR0 = TAR; // Initialize compare register

	CCR0 += Bit_time; // Set time till first bit
	TXByte |= 0x100; // Add stop bit to TXByte (which is logical 1)
	TXByte = TXByte << 1; // Add start bit (which is logical 0)
    fa12:	3f d0 00 01 	bis	#256,	r15	;#0x0100
    fa16:	0f 5f       	rla	r15		
    fa18:	82 4f 02 02 	mov	r15,	&0x0202	

	CCTL0 = CCIS0 + OUTMOD0 + CCIE; // Set signal, intial value, enable interrupts
    fa1c:	b2 40 30 10 	mov	#4144,	&0x0162	;#0x1030
    fa20:	62 01 
	while ( CCTL0 & CCIE ); // Wait for previous TX completion
    fa22:	1f 42 62 01 	mov	&0x0162,r15	
    fa26:	3f f0 10 00 	and	#16,	r15	;#0x0010
    fa2a:	fb 23       	jnz	$-8      	;abs 0xfa22
}
    fa2c:	30 41       	ret			

0000fa2e <send>:

void send(char* str){
    fa2e:	0b 12       	push	r11		
    fa30:	0b 4f       	mov	r15,	r11	
	while(*str != '\0')
    fa32:	6f 4f       	mov.b	@r15,	r15	
    fa34:	4f 93       	tst.b	r15		
    fa36:	06 24       	jz	$+14     	;abs 0xfa44
		Transmit(*str++);
    fa38:	1b 53       	inc	r11		
    fa3a:	b0 12 f4 f9 	call	#0xf9f4	
	CCTL0 = CCIS0 + OUTMOD0 + CCIE; // Set signal, intial value, enable interrupts
	while ( CCTL0 & CCIE ); // Wait for previous TX completion
}

void send(char* str){
	while(*str != '\0')
    fa3e:	6f 4b       	mov.b	@r11,	r15	
    fa40:	4f 93       	tst.b	r15		
    fa42:	fa 23       	jnz	$-10     	;abs 0xfa38
		Transmit(*str++);
}
    fa44:	3b 41       	pop	r11		
    fa46:	30 41       	ret			

0000fa48 <hex>:

void hex(char x){
    fa48:	0b 12       	push	r11		
    fa4a:	0a 12       	push	r10		
    fa4c:	4a 4f       	mov.b	r15,	r10	
	Transmit('0');
    fa4e:	7f 40 30 00 	mov.b	#48,	r15	;#0x0030
    fa52:	b0 12 f4 f9 	call	#0xf9f4	
	Transmit('x');
    fa56:	7f 40 78 00 	mov.b	#120,	r15	;#0x0078
    fa5a:	b0 12 f4 f9 	call	#0xf9f4	
	Transmit( TO_HEX(((x & 0x00F0) >> 4)) );
    fa5e:	4b 4a       	mov.b	r10,	r11	
    fa60:	8b 11       	sxt	r11		
    fa62:	0e 4b       	mov	r11,	r14	
    fa64:	3e f0 f0 00 	and	#240,	r14	;#0x00f0
    fa68:	0e 11       	rra	r14		
    fa6a:	0e 11       	rra	r14		
    fa6c:	0e 11       	rra	r14		
    fa6e:	0e 11       	rra	r14		
    fa70:	3e 90 0a 00 	cmp	#10,	r14	;#0x000a
    fa74:	04 34       	jge	$+10     	;abs 0xfa7e
    fa76:	4f 4e       	mov.b	r14,	r15	
    fa78:	7f 50 30 00 	add.b	#48,	r15	;#0x0030
    fa7c:	03 3c       	jmp	$+8      	;abs 0xfa84
    fa7e:	4f 4e       	mov.b	r14,	r15	
    fa80:	7f 50 37 00 	add.b	#55,	r15	;#0x0037
    fa84:	b0 12 f4 f9 	call	#0xf9f4	
	Transmit( TO_HEX(((x & 0x000F) >> 0)) );
    fa88:	3b f0 0f 00 	and	#15,	r11	;#0x000f
    fa8c:	3b 90 0a 00 	cmp	#10,	r11	;#0x000a
    fa90:	06 34       	jge	$+14     	;abs 0xfa9e
    fa92:	7a f0 0f 00 	and.b	#15,	r10	;#0x000f
    fa96:	4f 4a       	mov.b	r10,	r15	
    fa98:	7f 50 30 00 	add.b	#48,	r15	;#0x0030
    fa9c:	05 3c       	jmp	$+12     	;abs 0xfaa8
    fa9e:	7a f0 0f 00 	and.b	#15,	r10	;#0x000f
    faa2:	4f 4a       	mov.b	r10,	r15	
    faa4:	7f 50 37 00 	add.b	#55,	r15	;#0x0037
    faa8:	b0 12 f4 f9 	call	#0xf9f4	
}
    faac:	3a 41       	pop	r10		
    faae:	3b 41       	pop	r11		
    fab0:	30 41       	ret			

0000fab2 <ta1_isr>:
interrupt(TIMERA0_VECTOR) ta1_isr (void){
    fab2:	0f 12       	push	r15		
    fab4:	0e 12       	push	r14		
    fab6:	0d 12       	push	r13		
	CCR0 += Bit_time; 					// Add Offset to CCR0
    fab8:	b2 50 68 00 	add	#104,	&0x0172	;#0x0068
    fabc:	72 01 
	if ( BitCnt == 0){ 					// If all bits TXed
    fabe:	5f 42 00 02 	mov.b	&0x0200,r15	
    fac2:	4f 93       	tst.b	r15		
    fac4:	07 20       	jnz	$+16     	;abs 0xfad4
		TACTL = TASSEL_2; 				// SMCLK, timer off (for power consumption)
    fac6:	b2 40 00 02 	mov	#512,	&0x0160	;#0x0200
    faca:	60 01 
		CCTL0 &= ~ CCIE ; 				// Disable interrupt
    facc:	b2 f0 ef ff 	and	#-17,	&0x0162	;#0xffef
    fad0:	62 01 
    fad2:	12 3c       	jmp	$+38     	;abs 0xfaf8
	}
	else{
		CCTL0 |= OUTMOD2; // Set TX bit to 0
    fad4:	b2 d0 80 00 	bis	#128,	&0x0162	;#0x0080
    fad8:	62 01 
		if (TXByte & 0x01)
    fada:	1e 42 02 02 	mov	&0x0202,r14	
    fade:	0d 4e       	mov	r14,	r13	
    fae0:	1d f3       	and	#1,	r13	;r3 As==01
    fae2:	03 24       	jz	$+8      	;abs 0xfaea
			CCTL0 &= ~ OUTMOD2; // If it should be 1, set it to 1
    fae4:	b2 f0 7f ff 	and	#-129,	&0x0162	;#0xff7f
    fae8:	62 01 
		TXByte = TXByte >> 1;
    faea:	12 c3       	clrc			
    faec:	0e 10       	rrc	r14		
    faee:	82 4e 02 02 	mov	r14,	&0x0202	
		BitCnt --;
    faf2:	7f 53       	add.b	#-1,	r15	;r3 As==11
    faf4:	c2 4f 00 02 	mov.b	r15,	&0x0200	
	}
}
    faf8:	3d 41       	pop	r13		
    fafa:	3e 41       	pop	r14		
    fafc:	3f 41       	pop	r15		
    fafe:	00 13       	reti			

0000fb00 <delay_ms>:
	}while(n--);
}


static void __inline__ _brief_pause(register unsigned int n){
    __asm__ __volatile__ (
    fb00:	3d 40 4d 01 	mov	#333,	r13	;#0x014d
    fb04:	0e 4d       	mov	r13,	r14	
    fb06:	1e 83       	dec	r14		
    fb08:	fe 23       	jnz	$-2      	;abs 0xfb06

// Delay n milliseconds
void delay_ms(unsigned int n){
	do{
		_brief_pause(333);
	}while(n--);
    fb0a:	3f 53       	add	#-1,	r15	;r3 As==11
    fb0c:	3f 93       	cmp	#-1,	r15	;r3 As==11
    fb0e:	fa 23       	jnz	$-10     	;abs 0xfb04
}
    fb10:	30 41       	ret			

0000fb12 <LcdUnInit>:
	LcdWrite(LCD_D, 0x00, 0); // 24 bit
	P1OUT |= PIN_NCS; 
}

void LcdUnInit(void){
	LcdWrite(LCD_C, 0x28, 1); // Sleep out command
    fb12:	5d 43       	mov.b	#1,	r13	;r3 As==01
    fb14:	7e 40 28 00 	mov.b	#40,	r14	;#0x0028
    fb18:	4f 43       	clr.b	r15		
    fb1a:	b0 12 ac f8 	call	#0xf8ac	
	delay_ms(110);
    fb1e:	3f 40 6e 00 	mov	#110,	r15	;#0x006e
    fb22:	b0 12 00 fb 	call	#0xfb00	
	LcdWrite(LCD_C, 0x10, 1); // Display on command
    fb26:	5d 43       	mov.b	#1,	r13	;r3 As==01
    fb28:	7e 40 10 00 	mov.b	#16,	r14	;#0x0010
    fb2c:	4f 43       	clr.b	r15		
    fb2e:	b0 12 ac f8 	call	#0xf8ac	
}
    fb32:	30 41       	ret			

0000fb34 <LcdInit>:
void send(char* str);
void hex(char x);
static void __inline__ _brief_pause(register unsigned int n);

void LcdInit(void){
	LcdWrite(LCD_C, 0x11, 1); // Sleep out command
    fb34:	5d 43       	mov.b	#1,	r13	;r3 As==01
    fb36:	7e 40 11 00 	mov.b	#17,	r14	;#0x0011
    fb3a:	4f 43       	clr.b	r15		
    fb3c:	b0 12 ac f8 	call	#0xf8ac	
	delay_ms(110);
    fb40:	3f 40 6e 00 	mov	#110,	r15	;#0x006e
    fb44:	b0 12 00 fb 	call	#0xfb00	
	LcdWrite(LCD_C, 0x29, 1); // Display on command
    fb48:	5d 43       	mov.b	#1,	r13	;r3 As==01
    fb4a:	7e 40 29 00 	mov.b	#41,	r14	;#0x0029
    fb4e:	4f 43       	clr.b	r15		
    fb50:	b0 12 ac f8 	call	#0xf8ac	

	P1OUT &= ~PIN_NCS; 
    fb54:	f2 f0 ef ff 	and.b	#-17,	&0x0021	;#0xffef
    fb58:	21 00 
	LcdWrite(LCD_C, 0x3A, 0); // Interface pixel format
    fb5a:	4d 43       	clr.b	r13		
    fb5c:	7e 40 3a 00 	mov.b	#58,	r14	;#0x003a
    fb60:	4f 4d       	mov.b	r13,	r15	
    fb62:	b0 12 ac f8 	call	#0xf8ac	
	LcdWrite(LCD_D, 0x70, 0); // 24 bit
    fb66:	4d 43       	clr.b	r13		
    fb68:	7e 40 70 00 	mov.b	#112,	r14	;#0x0070
    fb6c:	5f 43       	mov.b	#1,	r15	;r3 As==01
    fb6e:	b0 12 ac f8 	call	#0xf8ac	
	P1OUT |= PIN_NCS; 
    fb72:	f2 d0 10 00 	bis.b	#16,	&0x0021	;#0x0010
    fb76:	21 00 

	P1OUT &= ~PIN_NCS; 
    fb78:	f2 f0 ef ff 	and.b	#-17,	&0x0021	;#0xffef
    fb7c:	21 00 
	LcdWrite(LCD_C, 0x36, 0); // Memory Access Control
    fb7e:	4d 43       	clr.b	r13		
    fb80:	7e 40 36 00 	mov.b	#54,	r14	;#0x0036
    fb84:	4f 4d       	mov.b	r13,	r15	
    fb86:	b0 12 ac f8 	call	#0xf8ac	
	LcdWrite(LCD_D, 0x00, 0); // 24 bit
    fb8a:	4d 43       	clr.b	r13		
    fb8c:	4e 4d       	mov.b	r13,	r14	
    fb8e:	5f 43       	mov.b	#1,	r15	;r3 As==01
    fb90:	b0 12 ac f8 	call	#0xf8ac	
	P1OUT |= PIN_NCS; 
    fb94:	f2 d0 10 00 	bis.b	#16,	&0x0021	;#0x0010
    fb98:	21 00 
}
    fb9a:	30 41       	ret			

0000fb9c <_unexpected_>:
    fb9c:	00 13       	reti			

Disassembly of section .bss:

00000200 <BitCnt>:
	...

00000202 <TXByte>:
	...

Disassembly of section .vectors:

0000ffe0 <__ivtbl_16>:
    ffe0:	a6 f8 a6 f8 	and	@r8,	-1882(r6);0xf8a6(r6)
    ffe4:	a6 f8 a6 f8 	and	@r8,	-1882(r6);0xf8a6(r6)
    ffe8:	a6 f8 a6 f8 	and	@r8,	-1882(r6);0xf8a6(r6)
    ffec:	a6 f8 a6 f8 	and	@r8,	-1882(r6);0xf8a6(r6)
    fff0:	a6 f8 b2 fa 	and	@r8,	-1358(r6);0xfab2(r6)
    fff4:	a6 f8 a6 f8 	and	@r8,	-1882(r6);0xf8a6(r6)
    fff8:	a6 f8 a6 f8 	and	@r8,	-1882(r6);0xf8a6(r6)
    fffc:	a6 f8 00 f8 	and	@r8,	-2048(r6);0xf800(r6)

Disassembly of section .debug_aranges:

00000000 <.debug_aranges>:
   0:	14 00       	.word	0x0014;	????	
   2:	00 00       	.word	0x0000;	????	
   4:	02 00       	.word	0x0002;	????	
   6:	00 00       	.word	0x0000;	????	
   8:	00 00       	.word	0x0000;	????	
   a:	02 00       	.word	0x0002;	????	
   c:	aa f8 f2 02 	and	@r8,	754(r10);0x02f2(r10)
  10:	38 f8       	and	@r8+,	r8	
  12:	68 00       	.word	0x0068;	????	
  14:	00 00       	.word	0x0000;	????	
  16:	00 00       	.word	0x0000;	????	
  18:	10 00       	.word	0x0010;	????	
  1a:	00 00       	.word	0x0000;	????	
  1c:	02 00       	.word	0x0002;	????	
  1e:	ba 04       	.word	0x04ba;	????	
  20:	00 00       	.word	0x0000;	????	
  22:	02 00       	.word	0x0002;	????	
  24:	00 f8       	and	r8,	r0	
  26:	04 00       	.word	0x0004;	????	
  28:	00 00       	.word	0x0000;	????	
  2a:	00 00       	.word	0x0000;	????	
  2c:	10 00       	.word	0x0010;	????	
  2e:	00 00       	.word	0x0000;	????	
  30:	02 00       	.word	0x0002;	????	
  32:	73 05       	.word	0x0573;	????	
  34:	00 00       	.word	0x0000;	????	
  36:	02 00       	.word	0x0002;	????	
  38:	04 f8       	and	r8,	r4	
  3a:	0a 00       	.word	0x000a;	????	
  3c:	00 00       	.word	0x0000;	????	
  3e:	00 00       	.word	0x0000;	????	
  40:	10 00       	.word	0x0010;	????	
  42:	00 00       	.word	0x0000;	????	
  44:	02 00       	.word	0x0002;	????	
  46:	2c 06       	.word	0x062c;	????	
  48:	00 00       	.word	0x0000;	????	
  4a:	02 00       	.word	0x0002;	????	
  4c:	0e f8       	and	r8,	r14	
  4e:	16 00       	.word	0x0016;	????	
  50:	00 00       	.word	0x0000;	????	
  52:	00 00       	.word	0x0000;	????	
  54:	10 00       	.word	0x0010;	????	
  56:	00 00       	.word	0x0000;	????	
  58:	02 00       	.word	0x0002;	????	
  5a:	e5 06       	.word	0x06e5;	????	
  5c:	00 00       	.word	0x0000;	????	
  5e:	02 00       	.word	0x0002;	????	
  60:	24 f8       	and	@r8,	r4	
  62:	14 00       	.word	0x0014;	????	
  64:	00 00       	.word	0x0000;	????	
  66:	00 00       	.word	0x0000;	????	
  68:	10 00       	.word	0x0010;	????	
  6a:	00 00       	.word	0x0000;	????	
  6c:	02 00       	.word	0x0002;	????	
  6e:	9e 07       	.word	0x079e;	????	
  70:	00 00       	.word	0x0000;	????	
  72:	02 00       	.word	0x0002;	????	
  74:	a0 f8 06 00 	and	@r8,	0x0006	;PC rel. 0x0007e
  78:	00 00       	.word	0x0000;	????	
  7a:	00 00       	.word	0x0000;	????	
  7c:	10 00       	.word	0x0010;	????	
  7e:	00 00       	.word	0x0000;	????	
  80:	02 00       	.word	0x0002;	????	
  82:	57 08       	.word	0x0857;	????	
  84:	00 00       	.word	0x0000;	????	
  86:	02 00       	.word	0x0002;	????	
  88:	9c fb 02 00 	and	2(r11),	0(r12)	;0x0002(r11), 0x0000(r12)
  8c:	00 00 
	...

Disassembly of section .debug_pubnames:

00000000 <.debug_pubnames>:
   0:	cc 00       	.word	0x00cc;	????	
   2:	00 00       	.word	0x0000;	????	
   4:	02 00       	.word	0x0002;	????	
   6:	00 00       	.word	0x0000;	????	
   8:	00 00       	.word	0x0000;	????	
   a:	ba 04       	.word	0x04ba;	????	
   c:	00 00       	.word	0x0000;	????	
   e:	45 00       	.word	0x0045;	????	
  10:	00 00       	.word	0x0000;	????	
  12:	4c 63       	adc.b	r12		
  14:	64 54       	add.b	@r4,	r4	
  16:	65 73       	subc.b	#2,	r5	;r3 As==10
  18:	74 00       	.word	0x0074;	????	
  1a:	6c 00       	.word	0x006c;	????	
  1c:	00 00       	.word	0x0000;	????	
  1e:	4c 63       	adc.b	r12		
  20:	64 57       	add.b	@r7,	r4	
  22:	72 69       	addc.b	@r9+,	r2	
  24:	74 65       	addc.b	@r5+,	r4	
  26:	00 be       	bit	r14,	r0	
  28:	00 00       	.word	0x0000;	????	
  2a:	00 4c       	br	r12		
  2c:	63 64       	.word	0x6463;	????	Illegal as 2-op instr
  2e:	45 78       	subc.b	r8,	r5	
  30:	74 65       	addc.b	@r5+,	r4	
  32:	6e 64       	addc.b	@r4,	r14	
  34:	65 64       	addc.b	@r4,	r5	
  36:	00 ce       	bic	r14,	r0	
  38:	00 00       	.word	0x0000;	????	
  3a:	00 4c       	br	r12		
  3c:	63 64       	.word	0x6463;	????	Illegal as 2-op instr
  3e:	47 61       	addc.b	r1,	r7	
  40:	6d 6d       	addc.b	@r13,	r13	
  42:	61 00       	.word	0x0061;	????	
  44:	f1 00       	.word	0x00f1;	????	
  46:	00 00       	.word	0x0000;	????	
  48:	4c 63       	adc.b	r12		
  4a:	64 52       	add.b	#4,	r4	;r2 As==10
  4c:	65 61       	addc.b	@r1,	r5	
  4e:	64 00       	.word	0x0064;	????	
  50:	35 01       	.word	0x0135;	????	
  52:	00 00       	.word	0x0000;	????	
  54:	62 6c       	addc.b	@r12,	r2	
  56:	5f 69 6e 69 	addc.b	26990(r9),r15	;0x696e(r9)
  5a:	74 00       	.word	0x0074;	????	
  5c:	45 01       	.word	0x0145;	????	
  5e:	00 00       	.word	0x0000;	????	
  60:	54 72 61 6e 	subc.b	&0x6e61,r4	
  64:	73 6d       	.word	0x6d73;	????	Illegal as 2-op instr
  66:	69 74       	subc.b	@r4,	r9	
  68:	00 69       	addc	r9,	r0	
  6a:	01 00       	.word	0x0001;	????	
  6c:	00 73       	sbc	r0		
  6e:	65 6e       	addc.b	@r14,	r5	
  70:	64 00       	.word	0x0064;	????	
  72:	96 01       	.word	0x0196;	????	
  74:	00 00       	.word	0x0000;	????	
  76:	68 65       	addc.b	@r5,	r8	
  78:	78 00       	.word	0x0078;	????	
  7a:	bb 01       	.word	0x01bb;	????	
  7c:	00 00       	.word	0x0000;	????	
  7e:	74 61       	addc.b	@r1+,	r4	
  80:	31 5f       	add	@r15+,	r1	
  82:	69 73       	subc.b	#2,	r9	;r3 As==10
  84:	72 00       	.word	0x0072;	????	
  86:	cd 01       	.word	0x01cd;	????	
  88:	00 00       	.word	0x0000;	????	
  8a:	64 65       	addc.b	@r5,	r4	
  8c:	6c 61       	addc.b	@r1,	r12	
  8e:	79 5f       	add.b	@r15+,	r9	
  90:	6d 73       	subc.b	#2,	r13	;r3 As==10
  92:	00 07       	.word	0x0700;	????	
  94:	02 00       	.word	0x0002;	????	
  96:	00 4c       	br	r12		
  98:	63 64       	.word	0x6463;	????	Illegal as 2-op instr
  9a:	55 6e 49 6e 	addc.b	28233(r14),r5	;0x6e49(r14)
  9e:	69 74       	subc.b	@r4,	r9	
  a0:	00 17       	.word	0x1700;	????	
  a2:	02 00       	.word	0x0002;	????	
  a4:	00 4c       	br	r12		
  a6:	63 64       	.word	0x6463;	????	Illegal as 2-op instr
  a8:	49 6e       	addc.b	r14,	r9	
  aa:	69 74       	subc.b	@r4,	r9	
  ac:	00 27       	jz	$-510    	;abs 0xfeae
  ae:	02 00       	.word	0x0002;	????	
  b0:	00 6d       	addc	r13,	r0	
  b2:	61 69       	addc.b	@r9,	r1	
  b4:	6e 00       	.word	0x006e;	????	
  b6:	99 04       	.word	0x0499;	????	
  b8:	00 00       	.word	0x0000;	????	
  ba:	42 69       	addc.b	r9,	r2	
  bc:	74 43       	mov.b	#-1,	r4	;r3 As==11
  be:	6e 74       	subc.b	@r4,	r14	
  c0:	00 a9       	dadd	r9,	r0	
  c2:	04 00       	.word	0x0004;	????	
  c4:	00 54       	add	r4,	r0	
  c6:	58 42 79 74 	mov.b	&0x7479,r8	
  ca:	65 00       	.word	0x0065;	????	
  cc:	00 00       	.word	0x0000;	????	
	...

Disassembly of section .debug_info:

00000000 <.debug_info>:
   0:	b6 04       	.word	0x04b6;	????	
   2:	00 00       	.word	0x0000;	????	
   4:	02 00       	.word	0x0002;	????	
   6:	00 00       	.word	0x0000;	????	
   8:	00 00       	.word	0x0000;	????	
   a:	02 01       	.word	0x0102;	????	
   c:	12 00       	.word	0x0012;	????	
   e:	00 00       	.word	0x0000;	????	
  10:	01 2b       	jnc	$-508    	;abs 0xfe14
  12:	01 00       	.word	0x0001;	????	
  14:	00 d7       	bis	r7,	r0	
	...
  22:	00 00       	.word	0x0000;	????	
  24:	00 02       	.word	0x0200;	????	
  26:	39 01       	.word	0x0139;	????	
  28:	00 00       	.word	0x0000;	????	
  2a:	01 65       	addc	r5,	r1	
  2c:	01 01       	.word	0x0101;	????	
  2e:	03 3e       	jmp	$-1016   	;abs 0xfc36
  30:	00 00       	.word	0x0000;	????	
  32:	00 03       	.word	0x0300;	????	
  34:	6e 00       	.word	0x006e;	????	
  36:	01 65       	addc	r5,	r1	
  38:	01 3e       	jmp	$-1020   	;abs 0xfc3c
  3a:	00 00       	.word	0x0000;	????	
  3c:	00 00       	.word	0x0000;	????	
  3e:	04 02       	.word	0x0204;	????	
  40:	07 b1       	bit	r1,	r7	
  42:	00 00       	.word	0x0000;	????	
  44:	00 05       	.word	0x0500;	????	
  46:	01 00       	.word	0x0001;	????	
  48:	00 00       	.word	0x0000;	????	
  4a:	00 01       	.word	0x0100;	????	
  4c:	6a 01       	.word	0x016a;	????	
  4e:	aa f8 ac f8 	and	@r8,	-1876(r10);0xf8ac(r10)
  52:	02 71       	subc	r1,	r2	
  54:	02 65       	addc	r5,	r2	
  56:	00 00       	.word	0x0000;	????	
  58:	00 06       	.word	0x0600;	????	
  5a:	58 00       	.word	0x0058;	????	
  5c:	00 00       	.word	0x0000;	????	
  5e:	01 6b       	addc	r11,	r1	
  60:	65 00       	.word	0x0065;	????	
  62:	00 00       	.word	0x0000;	????	
  64:	00 04       	.word	0x0400;	????	
  66:	01 06       	.word	0x0601;	????	
  68:	66 00       	.word	0x0066;	????	
  6a:	00 00       	.word	0x0000;	????	
  6c:	07 01       	.word	0x0107;	????	
  6e:	74 00       	.word	0x0074;	????	
  70:	00 00       	.word	0x0000;	????	
  72:	01 d5       	bis	r5,	r1	
  74:	01 ac       	dadd	r12,	r1	
  76:	f8 1c       	.word	0x1cf8;	????	
  78:	f9 00       	.word	0x00f9;	????	
  7a:	00 00       	.word	0x0000;	????	
  7c:	00 b7       	bit	r7,	r0	
  7e:	00 00       	.word	0x0000;	????	
  80:	00 08       	.word	0x0800;	????	
  82:	64 6e       	addc.b	@r14,	r4	
  84:	63 00       	.word	0x0063;	????	
  86:	01 d5       	bis	r5,	r1	
  88:	65 00       	.word	0x0065;	????	
  8a:	00 00       	.word	0x0000;	????	
  8c:	14 00       	.word	0x0014;	????	
  8e:	00 00       	.word	0x0000;	????	
  90:	09 58       	add	r8,	r9	
  92:	00 00       	.word	0x0000;	????	
  94:	00 01       	.word	0x0100;	????	
  96:	d5 65 00 00 	addc.b	0(r5),	256(r5)	;0x0000(r5), 0x0100(r5)
  9a:	00 01 
  9c:	5e 0a       	.word	0x0a5e;	????	
  9e:	63 73       	.word	0x7363;	????	Illegal as 2-op instr
  a0:	00 01       	.word	0x0100;	????	
  a2:	d5 65 00 00 	addc.b	0(r5),	256(r5)	;0x0000(r5), 0x0100(r5)
  a6:	00 01 
  a8:	5d 0b       	.word	0x0b5d;	????	
  aa:	69 00       	.word	0x0069;	????	
  ac:	01 d6       	bis	r6,	r1	
  ae:	b7 00       	.word	0x00b7;	????	
  b0:	00 00       	.word	0x0000;	????	
  b2:	1f 00       	.word	0x001f;	????	
  b4:	00 00       	.word	0x0000;	????	
  b6:	00 0c       	.word	0x0c00;	????	
  b8:	02 05       	.word	0x0502;	????	
  ba:	69 6e       	addc.b	@r14,	r9	
  bc:	74 00       	.word	0x0074;	????	
  be:	0d 01       	.word	0x010d;	????	
  c0:	14 01       	.word	0x0114;	????	
  c2:	00 00       	.word	0x0000;	????	
  c4:	01 61       	rlc	r1		
  c6:	01 1c       	.word	0x1c01;	????	
  c8:	f9 58 f9 02 	add.b	@r8+,	761(r9)	;0x02f9(r9)
  cc:	71 02       	.word	0x0271;	????	
  ce:	07 01       	.word	0x0107;	????	
  d0:	a3 00       	.word	0x00a3;	????	
  d2:	00 00       	.word	0x0000;	????	
  d4:	01 4a       	mov	r10,	r1	
  d6:	01 58       	add	r8,	r1	
  d8:	f9 94 f9 2b 	cmp.b	@r4+,	11257(r9);0x2bf9(r9)
  dc:	00 00       	.word	0x0000;	????	
  de:	00 f1       	and	r1,	r0	
  e0:	00 00       	.word	0x0000;	????	
  e2:	00 0b       	.word	0x0b00;	????	
  e4:	69 00       	.word	0x0069;	????	
  e6:	01 4b       	mov	r11,	r1	
  e8:	b7 00       	.word	0x00b7;	????	
  ea:	00 00       	.word	0x0000;	????	
  ec:	3f 00       	.word	0x003f;	????	
  ee:	00 00       	.word	0x0000;	????	
  f0:	00 0e       	.word	0x0e00;	????	
  f2:	01 77       	subc	r7,	r1	
  f4:	01 00       	.word	0x0001;	????	
  f6:	00 01       	.word	0x0100;	????	
  f8:	f2 01       	.word	0x01f2;	????	
  fa:	65 00       	.word	0x0065;	????	
  fc:	00 00       	.word	0x0000;	????	
  fe:	94 f9 da f9 	and	-1574(r9),82(r4)	;0xf9da(r9), 0x0052(r4)
 102:	52 00 
 104:	00 00       	.word	0x0000;	????	
 106:	35 01       	.word	0x0135;	????	
 108:	00 00       	.word	0x0000;	????	
 10a:	08 63       	adc	r8		
 10c:	73 00       	.word	0x0073;	????	
 10e:	01 f2       	and	r2,	r1	
 110:	65 00       	.word	0x0065;	????	
 112:	00 00       	.word	0x0000;	????	
 114:	6e 00       	.word	0x006e;	????	
 116:	00 00       	.word	0x0000;	????	
 118:	0b 69       	addc	r9,	r11	
 11a:	00 01       	.word	0x0100;	????	
 11c:	f3 b7       	bit.b	@r7+,	#1	;r3 As==01
 11e:	00 00       	.word	0x0000;	????	
 120:	00 80       	sub	r0,	r0	
 122:	00 00       	.word	0x0000;	????	
 124:	00 0f       	.word	0x0f00;	????	
 126:	58 00       	.word	0x0058;	????	
 128:	00 00       	.word	0x0000;	????	
 12a:	01 f4       	and	r4,	r1	
 12c:	65 00       	.word	0x0065;	????	
 12e:	00 00       	.word	0x0000;	????	
 130:	8c 00       	.word	0x008c;	????	
 132:	00 00       	.word	0x0000;	????	
 134:	00 10       	rrc	r0		
 136:	01 5f       	add	r15,	r1	
 138:	01 00       	.word	0x0001;	????	
 13a:	00 01       	.word	0x0100;	????	
 13c:	04 01       	.word	0x0104;	????	
 13e:	da f9 f4 f9 	and.b	-1548(r9),28930(r10);0xf9f4(r9), 0x7102(r10)
 142:	02 71 
 144:	02 11       	rra	r2		
 146:	01 0b       	.word	0x0b01;	????	
 148:	01 00       	.word	0x0001;	????	
 14a:	00 01       	.word	0x0100;	????	
 14c:	32 01       	.word	0x0132;	????	
 14e:	01 f4       	and	r4,	r1	
 150:	f9 2e       	jc	$-524    	;abs 0xff44
 152:	fa 02       	.word	0x02fa;	????	
 154:	71 02       	.word	0x0271;	????	
 156:	69 01       	.word	0x0169;	????	
 158:	00 00       	.word	0x0000;	????	
 15a:	12 63       	addc	#1,	r2	;r3 As==01
 15c:	00 01       	.word	0x0100;	????	
 15e:	32 01       	.word	0x0132;	????	
 160:	65 00       	.word	0x0065;	????	
 162:	00 00       	.word	0x0000;	????	
 164:	9f 00       	.word	0x009f;	????	
 166:	00 00       	.word	0x0000;	????	
 168:	00 13       	reti			
 16a:	01 be       	bit	r14,	r1	
 16c:	00 00       	.word	0x0000;	????	
 16e:	00 01       	.word	0x0100;	????	
 170:	43 01       	.word	0x0143;	????	
 172:	01 2e       	jc	$-1020   	;abs 0xfd76
 174:	fa 48 fa aa 	mov.b	@r8+,	-21766(r10);0xaafa(r10)
 178:	00 00       	.word	0x0000;	????	
 17a:	00 90       	cmp	r0,	r0	
 17c:	01 00       	.word	0x0001;	????	
 17e:	00 12       	push	r0		
 180:	73 74       	.word	0x7473;	????	Illegal as 2-op instr
 182:	72 00       	.word	0x0072;	????	
 184:	01 43       	clr	r1		
 186:	01 90       	cmp	r0,	r1	
 188:	01 00       	.word	0x0001;	????	
 18a:	00 be       	bit	r14,	r0	
 18c:	00 00       	.word	0x0000;	????	
 18e:	00 00       	.word	0x0000;	????	
 190:	14 02       	.word	0x0214;	????	
 192:	65 00       	.word	0x0065;	????	
 194:	00 00       	.word	0x0000;	????	
 196:	15 01       	.word	0x0115;	????	
 198:	68 65       	addc.b	@r5,	r8	
 19a:	78 00       	.word	0x0078;	????	
 19c:	01 48       	mov	r8,	r1	
 19e:	01 01       	.word	0x0101;	????	
 1a0:	48 fa       	and.b	r10,	r8	
 1a2:	b2 fa d7 00 	and	@r10+,	&0x00d7	
 1a6:	00 00       	.word	0x0000;	????	
 1a8:	bb 01       	.word	0x01bb;	????	
 1aa:	00 00       	.word	0x0000;	????	
 1ac:	12 78 00 01 	subc	256(r8),r2	;0x0100(r8)
 1b0:	48 01       	.word	0x0148;	????	
 1b2:	65 00       	.word	0x0065;	????	
 1b4:	00 00       	.word	0x0000;	????	
 1b6:	f3 00       	.word	0x00f3;	????	
 1b8:	00 00       	.word	0x0000;	????	
 1ba:	00 16       	.word	0x1600;	????	
 1bc:	01 39       	jl	$+516    	;abs 0x3c0
 1be:	00 00       	.word	0x0000;	????	
 1c0:	00 01       	.word	0x0100;	????	
 1c2:	4e 01       	.word	0x014e;	????	
 1c4:	01 b2       	bit	r2,	r1	
 1c6:	fa 00       	.word	0x00fa;	????	
 1c8:	fb 0c       	.word	0x0cfb;	????	
 1ca:	01 00       	.word	0x0001;	????	
 1cc:	00 11       	rra	r0		
 1ce:	01 6b       	addc	r11,	r1	
 1d0:	00 00       	.word	0x0000;	????	
 1d2:	00 01       	.word	0x0100;	????	
 1d4:	5e 01       	.word	0x015e;	????	
 1d6:	01 00       	.word	0x0001;	????	
 1d8:	fb 12       	.word	0x12fb;	????	
 1da:	fb 02       	.word	0x02fb;	????	
 1dc:	71 02       	.word	0x0271;	????	
 1de:	07 02       	.word	0x0207;	????	
 1e0:	00 00       	.word	0x0000;	????	
 1e2:	12 6e 00 01 	addc	256(r14),r2	;0x0100(r14)
 1e6:	5e 01       	.word	0x015e;	????	
 1e8:	3e 00       	.word	0x003e;	????	
 1ea:	00 00       	.word	0x0000;	????	
 1ec:	30 01       	.word	0x0130;	????	
 1ee:	00 00       	.word	0x0000;	????	
 1f0:	17 25       	jz	$+560    	;abs 0x420
 1f2:	00 00       	.word	0x0000;	????	
 1f4:	00 00       	.word	0x0000;	????	
 1f6:	fb 0a       	.word	0x0afb;	????	
 1f8:	fb 01       	.word	0x01fb;	????	
 1fa:	60 01       	.word	0x0160;	????	
 1fc:	18 33       	jn	$-462    	;abs 0x2e
 1fe:	00 00       	.word	0x0000;	????	
 200:	00 42       	br	r2		
 202:	01 00       	.word	0x0001;	????	
 204:	00 00       	.word	0x0000;	????	
 206:	00 0d       	.word	0x0d00;	????	
 208:	01 08       	.word	0x0801;	????	
 20a:	00 00       	.word	0x0000;	????	
 20c:	00 01       	.word	0x0100;	????	
 20e:	44 01       	.word	0x0144;	????	
 210:	12 fb 34 fb 	and	-1228(r11),r2	;0xfb34(r11)
 214:	02 71       	subc	r1,	r2	
 216:	02 0d       	.word	0x0d02;	????	
 218:	01 50       	add	r0,	r1	
 21a:	00 00       	.word	0x0000;	????	
 21c:	00 01       	.word	0x0100;	????	
 21e:	34 01       	.word	0x0134;	????	
 220:	34 fb       	and	@r11+,	r4	
 222:	9c fb 02 71 	and	28930(r11),6402(r12);0x7102(r11), 0x1902(r12)
 226:	02 19 
 228:	01 ac       	dadd	r12,	r1	
 22a:	00 00       	.word	0x0000;	????	
 22c:	00 01       	.word	0x0100;	????	
 22e:	0b 01       	.word	0x010b;	????	
 230:	01 b7       	bit	r7,	r1	
 232:	00 00       	.word	0x0000;	????	
 234:	00 38       	jl	$+2      	;abs 0x236
 236:	f8 a0 f8 02 	dadd.b	#760,	625(r8)	;#0x02f8, 0x0271(r8)
 23a:	71 02 
 23c:	4d 02       	.word	0x024d;	????	
 23e:	00 00       	.word	0x0000;	????	
 240:	1a 58 00 00 	add	0(r8),	r10	;0x0000(r8)
 244:	00 01       	.word	0x0100;	????	
 246:	0c 01       	.word	0x010c;	????	
 248:	65 00       	.word	0x0065;	????	
 24a:	00 00       	.word	0x0000;	????	
 24c:	00 1b       	.word	0x1b00;	????	
 24e:	93 00       	.word	0x0093;	????	
 250:	00 00       	.word	0x0000;	????	
 252:	02 14       	.word	0x1402;	????	
 254:	01 90       	cmp	r0,	r1	
 256:	00 00       	.word	0x0000;	????	
 258:	00 5f       	add	r15,	r0	
 25a:	02 00       	.word	0x0002;	????	
 25c:	00 01       	.word	0x0100;	????	
 25e:	01 1c       	.word	0x1c01;	????	
 260:	64 02       	.word	0x0264;	????	
 262:	00 00       	.word	0x0000;	????	
 264:	04 01       	.word	0x0104;	????	
 266:	08 5d       	add	r13,	r8	
 268:	00 00       	.word	0x0000;	????	
 26a:	00 1b       	.word	0x1b00;	????	
 26c:	cf 00       	.word	0x00cf;	????	
 26e:	00 00       	.word	0x0000;	????	
 270:	02 16       	.word	0x1602;	????	
 272:	01 cc       	bic	r12,	r1	
 274:	00 00       	.word	0x0000;	????	
 276:	00 5f       	add	r15,	r0	
 278:	02 00       	.word	0x0002;	????	
 27a:	00 01       	.word	0x0100;	????	
 27c:	01 1b       	.word	0x1b01;	????	
 27e:	80 00       	.word	0x0080;	????	
 280:	00 00       	.word	0x0000;	????	
 282:	02 9c       	cmp	r12,	r2	
 284:	01 7d       	subc	r13,	r1	
 286:	00 00       	.word	0x0000;	????	
 288:	00 8f       	sub	r15,	r0	
 28a:	02 00       	.word	0x0002;	????	
 28c:	00 01       	.word	0x0100;	????	
 28e:	01 1d       	.word	0x1d01;	????	
 290:	5f 02       	.word	0x025f;	????	
 292:	00 00       	.word	0x0000;	????	
 294:	1b 6a 01 00 	addc	1(r10),	r11	;0x0001(r10)
 298:	00 02       	.word	0x0200;	????	
 29a:	9e 01       	.word	0x019e;	????	
 29c:	67 01       	.word	0x0167;	????	
 29e:	00 00       	.word	0x0000;	????	
 2a0:	5f 02       	.word	0x025f;	????	
 2a2:	00 00       	.word	0x0000;	????	
 2a4:	01 01       	.word	0x0101;	????	
 2a6:	1b c6 00 00 	bic	0(r6),	r11	;0x0000(r6)
 2aa:	00 02       	.word	0x0200;	????	
 2ac:	a0 01       	.word	0x01a0;	????	
 2ae:	c3 00       	.word	0x00c3;	????	
 2b0:	00 00       	.word	0x0000;	????	
 2b2:	5f 02       	.word	0x025f;	????	
 2b4:	00 00       	.word	0x0000;	????	
 2b6:	01 01       	.word	0x0101;	????	
 2b8:	1b 05       	.word	0x051b;	????	
 2ba:	01 00       	.word	0x0001;	????	
 2bc:	00 02       	.word	0x0200;	????	
 2be:	a8 01       	.word	0x01a8;	????	
 2c0:	02 01       	.word	0x0102;	????	
 2c2:	00 00       	.word	0x0000;	????	
 2c4:	5f 02       	.word	0x025f;	????	
 2c6:	00 00       	.word	0x0000;	????	
 2c8:	01 01       	.word	0x0101;	????	
 2ca:	1b 9d 00 00 	cmp	0(r13),	r11	;0x0000(r13)
 2ce:	00 02       	.word	0x0200;	????	
 2d0:	c5 01       	.word	0x01c5;	????	
 2d2:	9a 00       	.word	0x009a;	????	
 2d4:	00 00       	.word	0x0000;	????	
 2d6:	dc 02       	.word	0x02dc;	????	
 2d8:	00 00       	.word	0x0000;	????	
 2da:	01 01       	.word	0x0101;	????	
 2dc:	1c 3e       	jmp	$-966    	;abs 0xff16
 2de:	00 00       	.word	0x0000;	????	
 2e0:	00 1b       	.word	0x1b00;	????	
 2e2:	23 01       	.word	0x0123;	????	
 2e4:	00 00       	.word	0x0000;	????	
 2e6:	02 c7       	bic	r7,	r2	
 2e8:	01 20       	jnz	$+4      	;abs 0x2ec
 2ea:	01 00       	.word	0x0001;	????	
 2ec:	00 dc       	bis	r12,	r0	
 2ee:	02 00       	.word	0x0002;	????	
 2f0:	00 01       	.word	0x0100;	????	
 2f2:	01 1b       	.word	0x1b01;	????	
 2f4:	88 00       	.word	0x0088;	????	
 2f6:	00 00       	.word	0x0000;	????	
 2f8:	02 c9       	bic	r9,	r2	
 2fa:	01 85       	sub	r5,	r1	
 2fc:	00 00       	.word	0x0000;	????	
 2fe:	00 dc       	bis	r12,	r0	
 300:	02 00       	.word	0x0002;	????	
 302:	00 01       	.word	0x0100;	????	
 304:	01 1e       	.word	0x1e01;	????	
 306:	54 41 52 00 	mov.b	82(r1),	r4	;0x0052(r1)
 30a:	02 cb       	bic	r11,	r2	
 30c:	01 70       	subc	r0,	r1	
 30e:	01 00       	.word	0x0001;	????	
 310:	00 dc       	bis	r12,	r0	
 312:	02 00       	.word	0x0002;	????	
 314:	00 01       	.word	0x0100;	????	
 316:	01 1b       	.word	0x1b01;	????	
 318:	21 00       	.word	0x0021;	????	
 31a:	00 00       	.word	0x0000;	????	
 31c:	02 cd       	bic	r13,	r2	
 31e:	01 1e       	.word	0x1e01;	????	
 320:	00 00       	.word	0x0000;	????	
 322:	00 dc       	bis	r12,	r0	
 324:	02 00       	.word	0x0002;	????	
 326:	00 01       	.word	0x0100;	????	
 328:	01 1b       	.word	0x1b01;	????	
 32a:	2b 00       	.word	0x002b;	????	
 32c:	00 00       	.word	0x0000;	????	
 32e:	02 cf       	bic	r15,	r2	
 330:	01 28       	jnc	$+4      	;abs 0x334
 332:	00 00       	.word	0x0000;	????	
 334:	00 dc       	bis	r12,	r0	
 336:	02 00       	.word	0x0002;	????	
 338:	00 01       	.word	0x0100;	????	
 33a:	01 1b       	.word	0x1b01;	????	
 33c:	58 01       	.word	0x0158;	????	
 33e:	00 00       	.word	0x0000;	????	
 340:	02 6e       	addc	r14,	r2	
 342:	02 55       	add	r5,	r2	
 344:	01 00       	.word	0x0001;	????	
 346:	00 dc       	bis	r12,	r0	
 348:	02 00       	.word	0x0002;	????	
 34a:	00 01       	.word	0x0100;	????	
 34c:	01 1b       	.word	0x1b01;	????	
 34e:	44 00       	.word	0x0044;	????	
 350:	00 00       	.word	0x0000;	????	
 352:	02 aa       	dadd	r10,	r2	
 354:	02 41       	mov	r1,	r2	
 356:	00 00       	.word	0x0000;	????	
 358:	00 8f       	sub	r15,	r0	
 35a:	02 00       	.word	0x0002;	????	
 35c:	00 01       	.word	0x0100;	????	
 35e:	01 1b       	.word	0x1b01;	????	
 360:	49 01       	.word	0x0149;	????	
 362:	00 00       	.word	0x0000;	????	
 364:	02 ac       	dadd	r12,	r2	
 366:	02 46       	mov	r6,	r2	
 368:	01 00       	.word	0x0001;	????	
 36a:	00 8f       	sub	r15,	r0	
 36c:	02 00       	.word	0x0002;	????	
 36e:	00 01       	.word	0x0100;	????	
 370:	01 1f       	.word	0x1f01;	????	
 372:	32 01       	.word	0x0132;	????	
 374:	00 00       	.word	0x0000;	????	
 376:	01 22       	jnz	$-1020   	;abs 0xff7a
 378:	64 02       	.word	0x0264;	????	
 37a:	00 00       	.word	0x0000;	????	
 37c:	01 01       	.word	0x0101;	????	
 37e:	1f 32       	jn	$-960    	;abs 0xffbe
 380:	00 00       	.word	0x0000;	????	
 382:	00 01       	.word	0x0100;	????	
 384:	23 3e       	jmp	$-952    	;abs 0xffcc
 386:	00 00       	.word	0x0000;	????	
 388:	00 01       	.word	0x0100;	????	
 38a:	01 1b       	.word	0x1b01;	????	
 38c:	93 00       	.word	0x0093;	????	
 38e:	00 00       	.word	0x0000;	????	
 390:	02 14       	.word	0x1402;	????	
 392:	01 90       	cmp	r0,	r1	
 394:	00 00       	.word	0x0000;	????	
 396:	00 5f       	add	r15,	r0	
 398:	02 00       	.word	0x0002;	????	
 39a:	00 01       	.word	0x0100;	????	
 39c:	01 1b       	.word	0x1b01;	????	
 39e:	cf 00       	.word	0x00cf;	????	
 3a0:	00 00       	.word	0x0000;	????	
 3a2:	02 16       	.word	0x1602;	????	
 3a4:	01 cc       	bic	r12,	r1	
 3a6:	00 00       	.word	0x0000;	????	
 3a8:	00 5f       	add	r15,	r0	
 3aa:	02 00       	.word	0x0002;	????	
 3ac:	00 01       	.word	0x0100;	????	
 3ae:	01 1b       	.word	0x1b01;	????	
 3b0:	80 00       	.word	0x0080;	????	
 3b2:	00 00       	.word	0x0000;	????	
 3b4:	02 9c       	cmp	r12,	r2	
 3b6:	01 7d       	subc	r13,	r1	
 3b8:	00 00       	.word	0x0000;	????	
 3ba:	00 8f       	sub	r15,	r0	
 3bc:	02 00       	.word	0x0002;	????	
 3be:	00 01       	.word	0x0100;	????	
 3c0:	01 1b       	.word	0x1b01;	????	
 3c2:	6a 01       	.word	0x016a;	????	
 3c4:	00 00       	.word	0x0000;	????	
 3c6:	02 9e       	cmp	r14,	r2	
 3c8:	01 67       	addc	r7,	r1	
 3ca:	01 00       	.word	0x0001;	????	
 3cc:	00 5f       	add	r15,	r0	
 3ce:	02 00       	.word	0x0002;	????	
 3d0:	00 01       	.word	0x0100;	????	
 3d2:	01 1b       	.word	0x1b01;	????	
 3d4:	c6 00       	.word	0x00c6;	????	
 3d6:	00 00       	.word	0x0000;	????	
 3d8:	02 a0       	dadd	r0,	r2	
 3da:	01 c3       	bic	#0,	r1	;r3 As==00
 3dc:	00 00       	.word	0x0000;	????	
 3de:	00 5f       	add	r15,	r0	
 3e0:	02 00       	.word	0x0002;	????	
 3e2:	00 01       	.word	0x0100;	????	
 3e4:	01 1b       	.word	0x1b01;	????	
 3e6:	05 01       	.word	0x0105;	????	
 3e8:	00 00       	.word	0x0000;	????	
 3ea:	02 a8       	dadd	r8,	r2	
 3ec:	01 02       	.word	0x0201;	????	
 3ee:	01 00       	.word	0x0001;	????	
 3f0:	00 5f       	add	r15,	r0	
 3f2:	02 00       	.word	0x0002;	????	
 3f4:	00 01       	.word	0x0100;	????	
 3f6:	01 1b       	.word	0x1b01;	????	
 3f8:	9d 00       	.word	0x009d;	????	
 3fa:	00 00       	.word	0x0000;	????	
 3fc:	02 c5       	bic	r5,	r2	
 3fe:	01 9a       	cmp	r10,	r1	
 400:	00 00       	.word	0x0000;	????	
 402:	00 dc       	bis	r12,	r0	
 404:	02 00       	.word	0x0002;	????	
 406:	00 01       	.word	0x0100;	????	
 408:	01 1b       	.word	0x1b01;	????	
 40a:	23 01       	.word	0x0123;	????	
 40c:	00 00       	.word	0x0000;	????	
 40e:	02 c7       	bic	r7,	r2	
 410:	01 20       	jnz	$+4      	;abs 0x414
 412:	01 00       	.word	0x0001;	????	
 414:	00 dc       	bis	r12,	r0	
 416:	02 00       	.word	0x0002;	????	
 418:	00 01       	.word	0x0100;	????	
 41a:	01 1b       	.word	0x1b01;	????	
 41c:	88 00       	.word	0x0088;	????	
 41e:	00 00       	.word	0x0000;	????	
 420:	02 c9       	bic	r9,	r2	
 422:	01 85       	sub	r5,	r1	
 424:	00 00       	.word	0x0000;	????	
 426:	00 dc       	bis	r12,	r0	
 428:	02 00       	.word	0x0002;	????	
 42a:	00 01       	.word	0x0100;	????	
 42c:	01 1e       	.word	0x1e01;	????	
 42e:	54 41 52 00 	mov.b	82(r1),	r4	;0x0052(r1)
 432:	02 cb       	bic	r11,	r2	
 434:	01 70       	subc	r0,	r1	
 436:	01 00       	.word	0x0001;	????	
 438:	00 dc       	bis	r12,	r0	
 43a:	02 00       	.word	0x0002;	????	
 43c:	00 01       	.word	0x0100;	????	
 43e:	01 1b       	.word	0x1b01;	????	
 440:	21 00       	.word	0x0021;	????	
 442:	00 00       	.word	0x0000;	????	
 444:	02 cd       	bic	r13,	r2	
 446:	01 1e       	.word	0x1e01;	????	
 448:	00 00       	.word	0x0000;	????	
 44a:	00 dc       	bis	r12,	r0	
 44c:	02 00       	.word	0x0002;	????	
 44e:	00 01       	.word	0x0100;	????	
 450:	01 1b       	.word	0x1b01;	????	
 452:	2b 00       	.word	0x002b;	????	
 454:	00 00       	.word	0x0000;	????	
 456:	02 cf       	bic	r15,	r2	
 458:	01 28       	jnc	$+4      	;abs 0x45c
 45a:	00 00       	.word	0x0000;	????	
 45c:	00 dc       	bis	r12,	r0	
 45e:	02 00       	.word	0x0002;	????	
 460:	00 01       	.word	0x0100;	????	
 462:	01 1b       	.word	0x1b01;	????	
 464:	58 01       	.word	0x0158;	????	
 466:	00 00       	.word	0x0000;	????	
 468:	02 6e       	addc	r14,	r2	
 46a:	02 55       	add	r5,	r2	
 46c:	01 00       	.word	0x0001;	????	
 46e:	00 dc       	bis	r12,	r0	
 470:	02 00       	.word	0x0002;	????	
 472:	00 01       	.word	0x0100;	????	
 474:	01 1b       	.word	0x1b01;	????	
 476:	44 00       	.word	0x0044;	????	
 478:	00 00       	.word	0x0000;	????	
 47a:	02 aa       	dadd	r10,	r2	
 47c:	02 41       	mov	r1,	r2	
 47e:	00 00       	.word	0x0000;	????	
 480:	00 8f       	sub	r15,	r0	
 482:	02 00       	.word	0x0002;	????	
 484:	00 01       	.word	0x0100;	????	
 486:	01 1b       	.word	0x1b01;	????	
 488:	49 01       	.word	0x0149;	????	
 48a:	00 00       	.word	0x0000;	????	
 48c:	02 ac       	dadd	r12,	r2	
 48e:	02 46       	mov	r6,	r2	
 490:	01 00       	.word	0x0001;	????	
 492:	00 8f       	sub	r15,	r0	
 494:	02 00       	.word	0x0002;	????	
 496:	00 01       	.word	0x0100;	????	
 498:	01 20       	jnz	$+4      	;abs 0x49c
 49a:	32 01       	.word	0x0132;	????	
 49c:	00 00       	.word	0x0000;	????	
 49e:	01 22       	jnz	$-1020   	;abs 0xa2
 4a0:	64 02       	.word	0x0264;	????	
 4a2:	00 00       	.word	0x0000;	????	
 4a4:	01 03       	.word	0x0301;	????	
 4a6:	03 00       	.word	0x0003;	????	
 4a8:	02 20       	jnz	$+6      	;abs 0x4ae
 4aa:	32 00       	.word	0x0032;	????	
 4ac:	00 00       	.word	0x0000;	????	
 4ae:	01 23       	jnz	$-508    	;abs 0x2b2
 4b0:	3e 00       	.word	0x003e;	????	
 4b2:	00 00       	.word	0x0000;	????	
 4b4:	01 03       	.word	0x0301;	????	
 4b6:	03 02       	.word	0x0203;	????	
 4b8:	02 00       	.word	0x0002;	????	
 4ba:	b5 00       	.word	0x00b5;	????	
 4bc:	00 00       	.word	0x0000;	????	
 4be:	02 00       	.word	0x0002;	????	
 4c0:	19 02       	.word	0x0219;	????	
 4c2:	00 00       	.word	0x0000;	????	
 4c4:	02 01       	.word	0x0102;	????	
 4c6:	6d 01       	.word	0x016d;	????	
 4c8:	00 00       	.word	0x0000;	????	
 4ca:	00 f8       	and	r8,	r0	
 4cc:	04 f8       	and	r8,	r4	
 4ce:	2f 62       	addc	#4,	r15	;r2 As==10
 4d0:	75 69       	addc.b	@r9+,	r5	
 4d2:	6c 64       	addc.b	@r4,	r12	
 4d4:	2f 62       	addc	#4,	r15	;r2 As==10
 4d6:	75 69       	addc.b	@r9+,	r5	
 4d8:	6c 64       	addc.b	@r4,	r12	
 4da:	64 2f       	jc	$-310    	;abs 0x3a4
 4dc:	67 63       	addc.b	#2,	r7	;r3 As==10
 4de:	63 2d       	jc	$+712    	;abs 0x7a6
 4e0:	6d 73       	subc.b	#2,	r13	;r3 As==10
 4e2:	70 34       	jge	$+226    	;abs 0x5c4
 4e4:	33 30       	jn	$+104    	;abs 0x54c
 4e6:	2d 34       	jge	$+92     	;abs 0x542
 4e8:	2e 35       	jge	$+606    	;abs 0x746
 4ea:	2e 33       	jn	$-418    	;abs 0x348
 4ec:	7e 6d       	addc.b	@r13+,	r14	
 4ee:	73 70       	.word	0x7073;	????	Illegal as 2-op instr
 4f0:	67 63       	addc.b	#2,	r7	;r3 As==10
 4f2:	63 2d       	jc	$+712    	;abs 0x7ba
 4f4:	32 30       	jn	$+102    	;abs 0x55a
 4f6:	31 31       	jn	$+612    	;abs 0x75a
 4f8:	30 37       	jge	$-414    	;abs 0x35a
 4fa:	31 36       	jge	$-924    	;abs 0x15e
 4fc:	2f 2e       	jc	$-928    	;abs 0x15c
 4fe:	2f 67       	addc	@r7,	r15	
 500:	63 63       	.word	0x6363;	????	Illegal as 2-op instr
 502:	2d 34       	jge	$+92     	;abs 0x55e
 504:	2e 35       	jge	$+606    	;abs 0x762
 506:	2e 33       	jn	$-418    	;abs 0x364
 508:	2f 67       	addc	@r7,	r15	
 50a:	63 63       	.word	0x6363;	????	Illegal as 2-op instr
 50c:	2f 63       	addc	#2,	r15	;r3 As==10
 50e:	6f 6e       	addc.b	@r14,	r15	
 510:	66 69       	addc.b	@r9,	r6	
 512:	67 2f       	jc	$-304    	;abs 0x3e2
 514:	6d 73       	subc.b	#2,	r13	;r3 As==10
 516:	70 34       	jge	$+226    	;abs 0x5f8
 518:	33 30       	jn	$+104    	;abs 0x580
 51a:	2f 63       	addc	#2,	r15	;r3 As==10
 51c:	72 74       	subc.b	@r4+,	r2	
 51e:	30 2e       	jc	$-926    	;abs 0x180
 520:	53 00       	.word	0x0053;	????	
 522:	2f 62       	addc	#4,	r15	;r2 As==10
 524:	75 69       	addc.b	@r9+,	r5	
 526:	6c 64       	addc.b	@r4,	r12	
 528:	2f 62       	addc	#4,	r15	;r2 As==10
 52a:	75 69       	addc.b	@r9+,	r5	
 52c:	6c 64       	addc.b	@r4,	r12	
 52e:	64 2f       	jc	$-310    	;abs 0x3f8
 530:	67 63       	addc.b	#2,	r7	;r3 As==10
 532:	63 2d       	jc	$+712    	;abs 0x7fa
 534:	6d 73       	subc.b	#2,	r13	;r3 As==10
 536:	70 34       	jge	$+226    	;abs 0x618
 538:	33 30       	jn	$+104    	;abs 0x5a0
 53a:	2d 34       	jge	$+92     	;abs 0x596
 53c:	2e 35       	jge	$+606    	;abs 0x79a
 53e:	2e 33       	jn	$-418    	;abs 0x39c
 540:	7e 6d       	addc.b	@r13+,	r14	
 542:	73 70       	.word	0x7073;	????	Illegal as 2-op instr
 544:	67 63       	addc.b	#2,	r7	;r3 As==10
 546:	63 2d       	jc	$+712    	;abs 0x80e
 548:	32 30       	jn	$+102    	;abs 0x5ae
 54a:	31 31       	jn	$+612    	;abs 0x7ae
 54c:	30 37       	jge	$-414    	;abs 0x3ae
 54e:	31 36       	jge	$-924    	;abs 0x1b2
 550:	2f 62       	addc	#4,	r15	;r2 As==10
 552:	75 69       	addc.b	@r9+,	r5	
 554:	6c 64       	addc.b	@r4,	r12	
 556:	2d 72       	subc	#4,	r13	;r2 As==10
 558:	65 73       	subc.b	#2,	r5	;r3 As==10
 55a:	75 6c       	addc.b	@r12+,	r5	
 55c:	74 2f       	jc	$-278    	;abs 0x446
 55e:	67 63       	addc.b	#2,	r7	;r3 As==10
 560:	63 00       	.word	0x0063;	????	
 562:	47 4e       	mov.b	r14,	r7	
 564:	55 20       	jnz	$+172    	;abs 0x610
 566:	41 53       	add.b	#0,	r1	;r3 As==00
 568:	20 32       	jn	$-958    	;abs 0x1aa
 56a:	2e 32       	jn	$-930    	;abs 0x1c8
 56c:	31 2e       	jc	$-924    	;abs 0x1d0
 56e:	39 30       	jn	$+116    	;abs 0x5e2
 570:	00 01       	.word	0x0100;	????	
 572:	80 b5 00 00 	bit	r5,	0x0000	;PC rel. 0x00576
 576:	00 02       	.word	0x0200;	????	
 578:	00 2d       	jc	$+514    	;abs 0x77a
 57a:	02 00       	.word	0x0002;	????	
 57c:	00 02       	.word	0x0200;	????	
 57e:	01 ef       	xor	r15,	r1	
 580:	01 00       	.word	0x0001;	????	
 582:	00 04       	.word	0x0400;	????	
 584:	f8 0e       	.word	0x0ef8;	????	
 586:	f8 2f       	jc	$-14     	;abs 0x578
 588:	62 75       	subc.b	@r5,	r2	
 58a:	69 6c       	addc.b	@r12,	r9	
 58c:	64 2f       	jc	$-310    	;abs 0x456
 58e:	62 75       	subc.b	@r5,	r2	
 590:	69 6c       	addc.b	@r12,	r9	
 592:	64 64       	addc.b	@r4,	r4	
 594:	2f 67       	addc	@r7,	r15	
 596:	63 63       	.word	0x6363;	????	Illegal as 2-op instr
 598:	2d 6d       	addc	@r13,	r13	
 59a:	73 70       	.word	0x7073;	????	Illegal as 2-op instr
 59c:	34 33       	jn	$-406    	;abs 0x406
 59e:	30 2d       	jc	$+610    	;abs 0x800
 5a0:	34 2e       	jc	$-918    	;abs 0x20a
 5a2:	35 2e       	jc	$-916    	;abs 0x20e
 5a4:	33 7e       	.word	0x7e33;	????	Illegal as 2-op instr
 5a6:	6d 73       	subc.b	#2,	r13	;r3 As==10
 5a8:	70 67       	addc.b	@r7+,	r0	
 5aa:	63 63       	.word	0x6363;	????	Illegal as 2-op instr
 5ac:	2d 32       	jn	$-932    	;abs 0x208
 5ae:	30 31       	jn	$+610    	;abs 0x810
 5b0:	31 30       	jn	$+100    	;abs 0x614
 5b2:	37 31       	jn	$+624    	;abs 0x822
 5b4:	36 2f       	jc	$-402    	;abs 0x422
 5b6:	2e 2f       	jc	$-418    	;abs 0x414
 5b8:	67 63       	addc.b	#2,	r7	;r3 As==10
 5ba:	63 2d       	jc	$+712    	;abs 0x882
 5bc:	34 2e       	jc	$-918    	;abs 0x226
 5be:	35 2e       	jc	$-916    	;abs 0x22a
 5c0:	33 2f       	jc	$-408    	;abs 0x428
 5c2:	67 63       	addc.b	#2,	r7	;r3 As==10
 5c4:	63 2f       	jc	$-312    	;abs 0x48c
 5c6:	63 6f       	.word	0x6f63;	????	Illegal as 2-op instr
 5c8:	6e 66       	addc.b	@r6,	r14	
 5ca:	69 67       	addc.b	@r7,	r9	
 5cc:	2f 6d       	addc	@r13,	r15	
 5ce:	73 70       	.word	0x7073;	????	Illegal as 2-op instr
 5d0:	34 33       	jn	$-406    	;abs 0x43a
 5d2:	30 2f       	jc	$-414    	;abs 0x434
 5d4:	63 72       	.word	0x7263;	????	Illegal as 2-op instr
 5d6:	74 30       	jn	$+234    	;abs 0x6c0
 5d8:	2e 53       	incd	r14		
 5da:	00 2f       	jc	$-510    	;abs 0x3dc
 5dc:	62 75       	subc.b	@r5,	r2	
 5de:	69 6c       	addc.b	@r12,	r9	
 5e0:	64 2f       	jc	$-310    	;abs 0x4aa
 5e2:	62 75       	subc.b	@r5,	r2	
 5e4:	69 6c       	addc.b	@r12,	r9	
 5e6:	64 64       	addc.b	@r4,	r4	
 5e8:	2f 67       	addc	@r7,	r15	
 5ea:	63 63       	.word	0x6363;	????	Illegal as 2-op instr
 5ec:	2d 6d       	addc	@r13,	r13	
 5ee:	73 70       	.word	0x7073;	????	Illegal as 2-op instr
 5f0:	34 33       	jn	$-406    	;abs 0x45a
 5f2:	30 2d       	jc	$+610    	;abs 0x854
 5f4:	34 2e       	jc	$-918    	;abs 0x25e
 5f6:	35 2e       	jc	$-916    	;abs 0x262
 5f8:	33 7e       	.word	0x7e33;	????	Illegal as 2-op instr
 5fa:	6d 73       	subc.b	#2,	r13	;r3 As==10
 5fc:	70 67       	addc.b	@r7+,	r0	
 5fe:	63 63       	.word	0x6363;	????	Illegal as 2-op instr
 600:	2d 32       	jn	$-932    	;abs 0x25c
 602:	30 31       	jn	$+610    	;abs 0x864
 604:	31 30       	jn	$+100    	;abs 0x668
 606:	37 31       	jn	$+624    	;abs 0x876
 608:	36 2f       	jc	$-402    	;abs 0x476
 60a:	62 75       	subc.b	@r5,	r2	
 60c:	69 6c       	addc.b	@r12,	r9	
 60e:	64 2d       	jc	$+714    	;abs 0x8d8
 610:	72 65       	addc.b	@r5+,	r2	
 612:	73 75       	.word	0x7573;	????	Illegal as 2-op instr
 614:	6c 74       	subc.b	@r4,	r12	
 616:	2f 67       	addc	@r7,	r15	
 618:	63 63       	.word	0x6363;	????	Illegal as 2-op instr
 61a:	00 47       	br	r7		
 61c:	4e 55       	add.b	r5,	r14	
 61e:	20 41       	br	@r1		
 620:	53 20       	jnz	$+168    	;abs 0x6c8
 622:	32 2e       	jc	$-922    	;abs 0x288
 624:	32 31       	jn	$+614    	;abs 0x88a
 626:	2e 39       	jl	$+606    	;abs 0x884
 628:	30 00       	.word	0x0030;	????	
 62a:	01 80       	sub	r0,	r1	
 62c:	b5 00       	.word	0x00b5;	????	
 62e:	00 00       	.word	0x0000;	????	
 630:	02 00       	.word	0x0002;	????	
 632:	41 02       	.word	0x0241;	????	
 634:	00 00       	.word	0x0000;	????	
 636:	02 01       	.word	0x0102;	????	
 638:	73 02       	.word	0x0273;	????	
 63a:	00 00       	.word	0x0000;	????	
 63c:	0e f8       	and	r8,	r14	
 63e:	24 f8       	and	@r8,	r4	
 640:	2f 62       	addc	#4,	r15	;r2 As==10
 642:	75 69       	addc.b	@r9+,	r5	
 644:	6c 64       	addc.b	@r4,	r12	
 646:	2f 62       	addc	#4,	r15	;r2 As==10
 648:	75 69       	addc.b	@r9+,	r5	
 64a:	6c 64       	addc.b	@r4,	r12	
 64c:	64 2f       	jc	$-310    	;abs 0x516
 64e:	67 63       	addc.b	#2,	r7	;r3 As==10
 650:	63 2d       	jc	$+712    	;abs 0x918
 652:	6d 73       	subc.b	#2,	r13	;r3 As==10
 654:	70 34       	jge	$+226    	;abs 0x736
 656:	33 30       	jn	$+104    	;abs 0x6be
 658:	2d 34       	jge	$+92     	;abs 0x6b4
 65a:	2e 35       	jge	$+606    	;abs 0x8b8
 65c:	2e 33       	jn	$-418    	;abs 0x4ba
 65e:	7e 6d       	addc.b	@r13+,	r14	
 660:	73 70       	.word	0x7073;	????	Illegal as 2-op instr
 662:	67 63       	addc.b	#2,	r7	;r3 As==10
 664:	63 2d       	jc	$+712    	;abs 0x92c
 666:	32 30       	jn	$+102    	;abs 0x6cc
 668:	31 31       	jn	$+612    	;abs 0x8cc
 66a:	30 37       	jge	$-414    	;abs 0x4cc
 66c:	31 36       	jge	$-924    	;abs 0x2d0
 66e:	2f 2e       	jc	$-928    	;abs 0x2ce
 670:	2f 67       	addc	@r7,	r15	
 672:	63 63       	.word	0x6363;	????	Illegal as 2-op instr
 674:	2d 34       	jge	$+92     	;abs 0x6d0
 676:	2e 35       	jge	$+606    	;abs 0x8d4
 678:	2e 33       	jn	$-418    	;abs 0x4d6
 67a:	2f 67       	addc	@r7,	r15	
 67c:	63 63       	.word	0x6363;	????	Illegal as 2-op instr
 67e:	2f 63       	addc	#2,	r15	;r3 As==10
 680:	6f 6e       	addc.b	@r14,	r15	
 682:	66 69       	addc.b	@r9,	r6	
 684:	67 2f       	jc	$-304    	;abs 0x554
 686:	6d 73       	subc.b	#2,	r13	;r3 As==10
 688:	70 34       	jge	$+226    	;abs 0x76a
 68a:	33 30       	jn	$+104    	;abs 0x6f2
 68c:	2f 63       	addc	#2,	r15	;r3 As==10
 68e:	72 74       	subc.b	@r4+,	r2	
 690:	30 2e       	jc	$-926    	;abs 0x2f2
 692:	53 00       	.word	0x0053;	????	
 694:	2f 62       	addc	#4,	r15	;r2 As==10
 696:	75 69       	addc.b	@r9+,	r5	
 698:	6c 64       	addc.b	@r4,	r12	
 69a:	2f 62       	addc	#4,	r15	;r2 As==10
 69c:	75 69       	addc.b	@r9+,	r5	
 69e:	6c 64       	addc.b	@r4,	r12	
 6a0:	64 2f       	jc	$-310    	;abs 0x56a
 6a2:	67 63       	addc.b	#2,	r7	;r3 As==10
 6a4:	63 2d       	jc	$+712    	;abs 0x96c
 6a6:	6d 73       	subc.b	#2,	r13	;r3 As==10
 6a8:	70 34       	jge	$+226    	;abs 0x78a
 6aa:	33 30       	jn	$+104    	;abs 0x712
 6ac:	2d 34       	jge	$+92     	;abs 0x708
 6ae:	2e 35       	jge	$+606    	;abs 0x90c
 6b0:	2e 33       	jn	$-418    	;abs 0x50e
 6b2:	7e 6d       	addc.b	@r13+,	r14	
 6b4:	73 70       	.word	0x7073;	????	Illegal as 2-op instr
 6b6:	67 63       	addc.b	#2,	r7	;r3 As==10
 6b8:	63 2d       	jc	$+712    	;abs 0x980
 6ba:	32 30       	jn	$+102    	;abs 0x720
 6bc:	31 31       	jn	$+612    	;abs 0x920
 6be:	30 37       	jge	$-414    	;abs 0x520
 6c0:	31 36       	jge	$-924    	;abs 0x324
 6c2:	2f 62       	addc	#4,	r15	;r2 As==10
 6c4:	75 69       	addc.b	@r9+,	r5	
 6c6:	6c 64       	addc.b	@r4,	r12	
 6c8:	2d 72       	subc	#4,	r13	;r2 As==10
 6ca:	65 73       	subc.b	#2,	r5	;r3 As==10
 6cc:	75 6c       	addc.b	@r12+,	r5	
 6ce:	74 2f       	jc	$-278    	;abs 0x5b8
 6d0:	67 63       	addc.b	#2,	r7	;r3 As==10
 6d2:	63 00       	.word	0x0063;	????	
 6d4:	47 4e       	mov.b	r14,	r7	
 6d6:	55 20       	jnz	$+172    	;abs 0x782
 6d8:	41 53       	add.b	#0,	r1	;r3 As==00
 6da:	20 32       	jn	$-958    	;abs 0x31c
 6dc:	2e 32       	jn	$-930    	;abs 0x33a
 6de:	31 2e       	jc	$-924    	;abs 0x342
 6e0:	39 30       	jn	$+116    	;abs 0x754
 6e2:	00 01       	.word	0x0100;	????	
 6e4:	80 b5 00 00 	bit	r5,	0x0000	;PC rel. 0x006e8
 6e8:	00 02       	.word	0x0200;	????	
 6ea:	00 55       	add	r5,	r0	
 6ec:	02 00       	.word	0x0002;	????	
 6ee:	00 02       	.word	0x0200;	????	
 6f0:	01 fb       	and	r11,	r1	
 6f2:	02 00       	.word	0x0002;	????	
 6f4:	00 24       	jz	$+2      	;abs 0x6f6
 6f6:	f8 38       	jl	$+498    	;abs 0x8e8
 6f8:	f8 2f       	jc	$-14     	;abs 0x6ea
 6fa:	62 75       	subc.b	@r5,	r2	
 6fc:	69 6c       	addc.b	@r12,	r9	
 6fe:	64 2f       	jc	$-310    	;abs 0x5c8
 700:	62 75       	subc.b	@r5,	r2	
 702:	69 6c       	addc.b	@r12,	r9	
 704:	64 64       	addc.b	@r4,	r4	
 706:	2f 67       	addc	@r7,	r15	
 708:	63 63       	.word	0x6363;	????	Illegal as 2-op instr
 70a:	2d 6d       	addc	@r13,	r13	
 70c:	73 70       	.word	0x7073;	????	Illegal as 2-op instr
 70e:	34 33       	jn	$-406    	;abs 0x578
 710:	30 2d       	jc	$+610    	;abs 0x972
 712:	34 2e       	jc	$-918    	;abs 0x37c
 714:	35 2e       	jc	$-916    	;abs 0x380
 716:	33 7e       	.word	0x7e33;	????	Illegal as 2-op instr
 718:	6d 73       	subc.b	#2,	r13	;r3 As==10
 71a:	70 67       	addc.b	@r7+,	r0	
 71c:	63 63       	.word	0x6363;	????	Illegal as 2-op instr
 71e:	2d 32       	jn	$-932    	;abs 0x37a
 720:	30 31       	jn	$+610    	;abs 0x982
 722:	31 30       	jn	$+100    	;abs 0x786
 724:	37 31       	jn	$+624    	;abs 0x994
 726:	36 2f       	jc	$-402    	;abs 0x594
 728:	2e 2f       	jc	$-418    	;abs 0x586
 72a:	67 63       	addc.b	#2,	r7	;r3 As==10
 72c:	63 2d       	jc	$+712    	;abs 0x9f4
 72e:	34 2e       	jc	$-918    	;abs 0x398
 730:	35 2e       	jc	$-916    	;abs 0x39c
 732:	33 2f       	jc	$-408    	;abs 0x59a
 734:	67 63       	addc.b	#2,	r7	;r3 As==10
 736:	63 2f       	jc	$-312    	;abs 0x5fe
 738:	63 6f       	.word	0x6f63;	????	Illegal as 2-op instr
 73a:	6e 66       	addc.b	@r6,	r14	
 73c:	69 67       	addc.b	@r7,	r9	
 73e:	2f 6d       	addc	@r13,	r15	
 740:	73 70       	.word	0x7073;	????	Illegal as 2-op instr
 742:	34 33       	jn	$-406    	;abs 0x5ac
 744:	30 2f       	jc	$-414    	;abs 0x5a6
 746:	63 72       	.word	0x7263;	????	Illegal as 2-op instr
 748:	74 30       	jn	$+234    	;abs 0x832
 74a:	2e 53       	incd	r14		
 74c:	00 2f       	jc	$-510    	;abs 0x54e
 74e:	62 75       	subc.b	@r5,	r2	
 750:	69 6c       	addc.b	@r12,	r9	
 752:	64 2f       	jc	$-310    	;abs 0x61c
 754:	62 75       	subc.b	@r5,	r2	
 756:	69 6c       	addc.b	@r12,	r9	
 758:	64 64       	addc.b	@r4,	r4	
 75a:	2f 67       	addc	@r7,	r15	
 75c:	63 63       	.word	0x6363;	????	Illegal as 2-op instr
 75e:	2d 6d       	addc	@r13,	r13	
 760:	73 70       	.word	0x7073;	????	Illegal as 2-op instr
 762:	34 33       	jn	$-406    	;abs 0x5cc
 764:	30 2d       	jc	$+610    	;abs 0x9c6
 766:	34 2e       	jc	$-918    	;abs 0x3d0
 768:	35 2e       	jc	$-916    	;abs 0x3d4
 76a:	33 7e       	.word	0x7e33;	????	Illegal as 2-op instr
 76c:	6d 73       	subc.b	#2,	r13	;r3 As==10
 76e:	70 67       	addc.b	@r7+,	r0	
 770:	63 63       	.word	0x6363;	????	Illegal as 2-op instr
 772:	2d 32       	jn	$-932    	;abs 0x3ce
 774:	30 31       	jn	$+610    	;abs 0x9d6
 776:	31 30       	jn	$+100    	;abs 0x7da
 778:	37 31       	jn	$+624    	;abs 0x9e8
 77a:	36 2f       	jc	$-402    	;abs 0x5e8
 77c:	62 75       	subc.b	@r5,	r2	
 77e:	69 6c       	addc.b	@r12,	r9	
 780:	64 2d       	jc	$+714    	;abs 0xa4a
 782:	72 65       	addc.b	@r5+,	r2	
 784:	73 75       	.word	0x7573;	????	Illegal as 2-op instr
 786:	6c 74       	subc.b	@r4,	r12	
 788:	2f 67       	addc	@r7,	r15	
 78a:	63 63       	.word	0x6363;	????	Illegal as 2-op instr
 78c:	00 47       	br	r7		
 78e:	4e 55       	add.b	r5,	r14	
 790:	20 41       	br	@r1		
 792:	53 20       	jnz	$+168    	;abs 0x83a
 794:	32 2e       	jc	$-922    	;abs 0x3fa
 796:	32 31       	jn	$+614    	;abs 0x9fc
 798:	2e 39       	jl	$+606    	;abs 0x9f6
 79a:	30 00       	.word	0x0030;	????	
 79c:	01 80       	sub	r0,	r1	
 79e:	b5 00       	.word	0x00b5;	????	
 7a0:	00 00       	.word	0x0000;	????	
 7a2:	02 00       	.word	0x0002;	????	
 7a4:	69 02       	.word	0x0269;	????	
 7a6:	00 00       	.word	0x0000;	????	
 7a8:	02 01       	.word	0x0102;	????	
 7aa:	83 03       	.word	0x0383;	????	
 7ac:	00 00       	.word	0x0000;	????	
 7ae:	a0 f8 a6 f8 	and	@r8,	0xf8a6	;PC rel. 0x00058
 7b2:	2f 62       	addc	#4,	r15	;r2 As==10
 7b4:	75 69       	addc.b	@r9+,	r5	
 7b6:	6c 64       	addc.b	@r4,	r12	
 7b8:	2f 62       	addc	#4,	r15	;r2 As==10
 7ba:	75 69       	addc.b	@r9+,	r5	
 7bc:	6c 64       	addc.b	@r4,	r12	
 7be:	64 2f       	jc	$-310    	;abs 0x688
 7c0:	67 63       	addc.b	#2,	r7	;r3 As==10
 7c2:	63 2d       	jc	$+712    	;abs 0xa8a
 7c4:	6d 73       	subc.b	#2,	r13	;r3 As==10
 7c6:	70 34       	jge	$+226    	;abs 0x8a8
 7c8:	33 30       	jn	$+104    	;abs 0x830
 7ca:	2d 34       	jge	$+92     	;abs 0x826
 7cc:	2e 35       	jge	$+606    	;abs 0xa2a
 7ce:	2e 33       	jn	$-418    	;abs 0x62c
 7d0:	7e 6d       	addc.b	@r13+,	r14	
 7d2:	73 70       	.word	0x7073;	????	Illegal as 2-op instr
 7d4:	67 63       	addc.b	#2,	r7	;r3 As==10
 7d6:	63 2d       	jc	$+712    	;abs 0xa9e
 7d8:	32 30       	jn	$+102    	;abs 0x83e
 7da:	31 31       	jn	$+612    	;abs 0xa3e
 7dc:	30 37       	jge	$-414    	;abs 0x63e
 7de:	31 36       	jge	$-924    	;abs 0x442
 7e0:	2f 2e       	jc	$-928    	;abs 0x440
 7e2:	2f 67       	addc	@r7,	r15	
 7e4:	63 63       	.word	0x6363;	????	Illegal as 2-op instr
 7e6:	2d 34       	jge	$+92     	;abs 0x842
 7e8:	2e 35       	jge	$+606    	;abs 0xa46
 7ea:	2e 33       	jn	$-418    	;abs 0x648
 7ec:	2f 67       	addc	@r7,	r15	
 7ee:	63 63       	.word	0x6363;	????	Illegal as 2-op instr
 7f0:	2f 63       	addc	#2,	r15	;r3 As==10
 7f2:	6f 6e       	addc.b	@r14,	r15	
 7f4:	66 69       	addc.b	@r9,	r6	
 7f6:	67 2f       	jc	$-304    	;abs 0x6c6
 7f8:	6d 73       	subc.b	#2,	r13	;r3 As==10
 7fa:	70 34       	jge	$+226    	;abs 0x8dc
 7fc:	33 30       	jn	$+104    	;abs 0x864
 7fe:	2f 63       	addc	#2,	r15	;r3 As==10
 800:	72 74       	subc.b	@r4+,	r2	
 802:	30 2e       	jc	$-926    	;abs 0x464
 804:	53 00       	.word	0x0053;	????	
 806:	2f 62       	addc	#4,	r15	;r2 As==10
 808:	75 69       	addc.b	@r9+,	r5	
 80a:	6c 64       	addc.b	@r4,	r12	
 80c:	2f 62       	addc	#4,	r15	;r2 As==10
 80e:	75 69       	addc.b	@r9+,	r5	
 810:	6c 64       	addc.b	@r4,	r12	
 812:	64 2f       	jc	$-310    	;abs 0x6dc
 814:	67 63       	addc.b	#2,	r7	;r3 As==10
 816:	63 2d       	jc	$+712    	;abs 0xade
 818:	6d 73       	subc.b	#2,	r13	;r3 As==10
 81a:	70 34       	jge	$+226    	;abs 0x8fc
 81c:	33 30       	jn	$+104    	;abs 0x884
 81e:	2d 34       	jge	$+92     	;abs 0x87a
 820:	2e 35       	jge	$+606    	;abs 0xa7e
 822:	2e 33       	jn	$-418    	;abs 0x680
 824:	7e 6d       	addc.b	@r13+,	r14	
 826:	73 70       	.word	0x7073;	????	Illegal as 2-op instr
 828:	67 63       	addc.b	#2,	r7	;r3 As==10
 82a:	63 2d       	jc	$+712    	;abs 0xaf2
 82c:	32 30       	jn	$+102    	;abs 0x892
 82e:	31 31       	jn	$+612    	;abs 0xa92
 830:	30 37       	jge	$-414    	;abs 0x692
 832:	31 36       	jge	$-924    	;abs 0x496
 834:	2f 62       	addc	#4,	r15	;r2 As==10
 836:	75 69       	addc.b	@r9+,	r5	
 838:	6c 64       	addc.b	@r4,	r12	
 83a:	2d 72       	subc	#4,	r13	;r2 As==10
 83c:	65 73       	subc.b	#2,	r5	;r3 As==10
 83e:	75 6c       	addc.b	@r12+,	r5	
 840:	74 2f       	jc	$-278    	;abs 0x72a
 842:	67 63       	addc.b	#2,	r7	;r3 As==10
 844:	63 00       	.word	0x0063;	????	
 846:	47 4e       	mov.b	r14,	r7	
 848:	55 20       	jnz	$+172    	;abs 0x8f4
 84a:	41 53       	add.b	#0,	r1	;r3 As==00
 84c:	20 32       	jn	$-958    	;abs 0x48e
 84e:	2e 32       	jn	$-930    	;abs 0x4ac
 850:	31 2e       	jc	$-924    	;abs 0x4b4
 852:	39 30       	jn	$+116    	;abs 0x8c6
 854:	00 01       	.word	0x0100;	????	
 856:	80 b5 00 00 	bit	r5,	0x0000	;PC rel. 0x0085a
 85a:	00 02       	.word	0x0200;	????	
 85c:	00 7d       	subc	r13,	r0	
 85e:	02 00       	.word	0x0002;	????	
 860:	00 02       	.word	0x0200;	????	
 862:	01 06       	.word	0x0601;	????	
 864:	04 00       	.word	0x0004;	????	
 866:	00 9c       	cmp	r12,	r0	
 868:	fb 9e fb 2f 	cmp.b	@r14+,	12283(r11);0x2ffb(r11)
 86c:	62 75       	subc.b	@r5,	r2	
 86e:	69 6c       	addc.b	@r12,	r9	
 870:	64 2f       	jc	$-310    	;abs 0x73a
 872:	62 75       	subc.b	@r5,	r2	
 874:	69 6c       	addc.b	@r12,	r9	
 876:	64 64       	addc.b	@r4,	r4	
 878:	2f 67       	addc	@r7,	r15	
 87a:	63 63       	.word	0x6363;	????	Illegal as 2-op instr
 87c:	2d 6d       	addc	@r13,	r13	
 87e:	73 70       	.word	0x7073;	????	Illegal as 2-op instr
 880:	34 33       	jn	$-406    	;abs 0x6ea
 882:	30 2d       	jc	$+610    	;abs 0xae4
 884:	34 2e       	jc	$-918    	;abs 0x4ee
 886:	35 2e       	jc	$-916    	;abs 0x4f2
 888:	33 7e       	.word	0x7e33;	????	Illegal as 2-op instr
 88a:	6d 73       	subc.b	#2,	r13	;r3 As==10
 88c:	70 67       	addc.b	@r7+,	r0	
 88e:	63 63       	.word	0x6363;	????	Illegal as 2-op instr
 890:	2d 32       	jn	$-932    	;abs 0x4ec
 892:	30 31       	jn	$+610    	;abs 0xaf4
 894:	31 30       	jn	$+100    	;abs 0x8f8
 896:	37 31       	jn	$+624    	;abs 0xb06
 898:	36 2f       	jc	$-402    	;abs 0x706
 89a:	2e 2f       	jc	$-418    	;abs 0x6f8
 89c:	67 63       	addc.b	#2,	r7	;r3 As==10
 89e:	63 2d       	jc	$+712    	;abs 0xb66
 8a0:	34 2e       	jc	$-918    	;abs 0x50a
 8a2:	35 2e       	jc	$-916    	;abs 0x50e
 8a4:	33 2f       	jc	$-408    	;abs 0x70c
 8a6:	67 63       	addc.b	#2,	r7	;r3 As==10
 8a8:	63 2f       	jc	$-312    	;abs 0x770
 8aa:	63 6f       	.word	0x6f63;	????	Illegal as 2-op instr
 8ac:	6e 66       	addc.b	@r6,	r14	
 8ae:	69 67       	addc.b	@r7,	r9	
 8b0:	2f 6d       	addc	@r13,	r15	
 8b2:	73 70       	.word	0x7073;	????	Illegal as 2-op instr
 8b4:	34 33       	jn	$-406    	;abs 0x71e
 8b6:	30 2f       	jc	$-414    	;abs 0x718
 8b8:	63 72       	.word	0x7263;	????	Illegal as 2-op instr
 8ba:	74 30       	jn	$+234    	;abs 0x9a4
 8bc:	2e 53       	incd	r14		
 8be:	00 2f       	jc	$-510    	;abs 0x6c0
 8c0:	62 75       	subc.b	@r5,	r2	
 8c2:	69 6c       	addc.b	@r12,	r9	
 8c4:	64 2f       	jc	$-310    	;abs 0x78e
 8c6:	62 75       	subc.b	@r5,	r2	
 8c8:	69 6c       	addc.b	@r12,	r9	
 8ca:	64 64       	addc.b	@r4,	r4	
 8cc:	2f 67       	addc	@r7,	r15	
 8ce:	63 63       	.word	0x6363;	????	Illegal as 2-op instr
 8d0:	2d 6d       	addc	@r13,	r13	
 8d2:	73 70       	.word	0x7073;	????	Illegal as 2-op instr
 8d4:	34 33       	jn	$-406    	;abs 0x73e
 8d6:	30 2d       	jc	$+610    	;abs 0xb38
 8d8:	34 2e       	jc	$-918    	;abs 0x542
 8da:	35 2e       	jc	$-916    	;abs 0x546
 8dc:	33 7e       	.word	0x7e33;	????	Illegal as 2-op instr
 8de:	6d 73       	subc.b	#2,	r13	;r3 As==10
 8e0:	70 67       	addc.b	@r7+,	r0	
 8e2:	63 63       	.word	0x6363;	????	Illegal as 2-op instr
 8e4:	2d 32       	jn	$-932    	;abs 0x540
 8e6:	30 31       	jn	$+610    	;abs 0xb48
 8e8:	31 30       	jn	$+100    	;abs 0x94c
 8ea:	37 31       	jn	$+624    	;abs 0xb5a
 8ec:	36 2f       	jc	$-402    	;abs 0x75a
 8ee:	62 75       	subc.b	@r5,	r2	
 8f0:	69 6c       	addc.b	@r12,	r9	
 8f2:	64 2d       	jc	$+714    	;abs 0xbbc
 8f4:	72 65       	addc.b	@r5+,	r2	
 8f6:	73 75       	.word	0x7573;	????	Illegal as 2-op instr
 8f8:	6c 74       	subc.b	@r4,	r12	
 8fa:	2f 67       	addc	@r7,	r15	
 8fc:	63 63       	.word	0x6363;	????	Illegal as 2-op instr
 8fe:	00 47       	br	r7		
 900:	4e 55       	add.b	r5,	r14	
 902:	20 41       	br	@r1		
 904:	53 20       	jnz	$+168    	;abs 0x9ac
 906:	32 2e       	jc	$-922    	;abs 0x56c
 908:	32 31       	jn	$+614    	;abs 0xb6e
 90a:	2e 39       	jl	$+606    	;abs 0xb68
 90c:	30 00       	.word	0x0030;	????	
 90e:	01 80       	sub	r0,	r1	

Disassembly of section .debug_abbrev:

00000000 <.debug_abbrev>:
   0:	01 11       	rra	r1		
   2:	01 25       	jz	$+516    	;abs 0x206
   4:	0e 13       	reti			;return from interupt
   6:	0b 03       	.word	0x030b;	????	
   8:	0e 1b       	.word	0x1b0e;	????	
   a:	0e 11       	rra	r14		
   c:	01 52       	add	r2,	r1	
   e:	01 55       	add	r5,	r1	
  10:	06 10       	rrc	r6		
  12:	06 00       	.word	0x0006;	????	
  14:	00 02       	.word	0x0200;	????	
  16:	2e 01       	.word	0x012e;	????	
  18:	03 0e       	.word	0x0e03;	????	
  1a:	3a 0b       	.word	0x0b3a;	????	
  1c:	3b 05       	.word	0x053b;	????	
  1e:	27 0c       	.word	0x0c27;	????	
  20:	20 0b       	.word	0x0b20;	????	
  22:	01 13       	reti			;return from interupt
  24:	00 00       	.word	0x0000;	????	
  26:	03 05       	.word	0x0503;	????	
  28:	00 03       	.word	0x0300;	????	
  2a:	08 3a       	jl	$-1006   	;abs 0xfc3c
  2c:	0b 3b       	jl	$-488    	;abs 0xfe44
  2e:	05 49       	mov	r9,	r5	
  30:	13 00       	.word	0x0013;	????	
  32:	00 04       	.word	0x0400;	????	
  34:	24 00       	.word	0x0024;	????	
  36:	0b 0b       	.word	0x0b0b;	????	
  38:	3e 0b       	.word	0x0b3e;	????	
  3a:	03 0e       	.word	0x0e03;	????	
  3c:	00 00       	.word	0x0000;	????	
  3e:	05 2e       	jc	$-1012   	;abs 0xfc4a
  40:	01 3f       	jmp	$-508    	;abs 0xfe44
  42:	0c 03       	.word	0x030c;	????	
  44:	0e 3a       	jl	$-994    	;abs 0xfc62
  46:	0b 3b       	jl	$-488    	;abs 0xfe5e
  48:	0b 27       	jz	$-488    	;abs 0xfe60
  4a:	0c 11       	rra	r12		
  4c:	01 12       	push	r1		
  4e:	01 40       	mov	r0,	r1	
  50:	0a 01       	.word	0x010a;	????	
  52:	13 00       	.word	0x0013;	????	
  54:	00 06       	.word	0x0600;	????	
  56:	34 00       	.word	0x0034;	????	
  58:	03 0e       	.word	0x0e03;	????	
  5a:	3a 0b       	.word	0x0b3a;	????	
  5c:	3b 0b       	.word	0x0b3b;	????	
  5e:	49 13       	.word	0x1349;	????	
  60:	00 00       	.word	0x0000;	????	
  62:	07 2e       	jc	$-1008   	;abs 0xfc72
  64:	01 3f       	jmp	$-508    	;abs 0xfe68
  66:	0c 03       	.word	0x030c;	????	
  68:	0e 3a       	jl	$-994    	;abs 0xfc86
  6a:	0b 3b       	jl	$-488    	;abs 0xfe82
  6c:	0b 27       	jz	$-488    	;abs 0xfe84
  6e:	0c 11       	rra	r12		
  70:	01 12       	push	r1		
  72:	01 40       	mov	r0,	r1	
  74:	06 01       	.word	0x0106;	????	
  76:	13 00       	.word	0x0013;	????	
  78:	00 08       	.word	0x0800;	????	
  7a:	05 00       	.word	0x0005;	????	
  7c:	03 08       	.word	0x0803;	????	
  7e:	3a 0b       	.word	0x0b3a;	????	
  80:	3b 0b       	.word	0x0b3b;	????	
  82:	49 13       	.word	0x1349;	????	
  84:	02 06       	.word	0x0602;	????	
  86:	00 00       	.word	0x0000;	????	
  88:	09 05       	.word	0x0509;	????	
  8a:	00 03       	.word	0x0300;	????	
  8c:	0e 3a       	jl	$-994    	;abs 0xfcaa
  8e:	0b 3b       	jl	$-488    	;abs 0xfea6
  90:	0b 49       	mov	r9,	r11	
  92:	13 02       	.word	0x0213;	????	
  94:	0a 00       	.word	0x000a;	????	
  96:	00 0a       	.word	0x0a00;	????	
  98:	05 00       	.word	0x0005;	????	
  9a:	03 08       	.word	0x0803;	????	
  9c:	3a 0b       	.word	0x0b3a;	????	
  9e:	3b 0b       	.word	0x0b3b;	????	
  a0:	49 13       	.word	0x1349;	????	
  a2:	02 0a       	.word	0x0a02;	????	
  a4:	00 00       	.word	0x0000;	????	
  a6:	0b 34       	jge	$+24     	;abs 0xbe
  a8:	00 03       	.word	0x0300;	????	
  aa:	08 3a       	jl	$-1006   	;abs 0xfcbc
  ac:	0b 3b       	jl	$-488    	;abs 0xfec4
  ae:	0b 49       	mov	r9,	r11	
  b0:	13 02       	.word	0x0213;	????	
  b2:	06 00       	.word	0x0006;	????	
  b4:	00 0c       	.word	0x0c00;	????	
  b6:	24 00       	.word	0x0024;	????	
  b8:	0b 0b       	.word	0x0b0b;	????	
  ba:	3e 0b       	.word	0x0b3e;	????	
  bc:	03 08       	.word	0x0803;	????	
  be:	00 00       	.word	0x0000;	????	
  c0:	0d 2e       	jc	$-996    	;abs 0xfcdc
  c2:	00 3f       	jmp	$-510    	;abs 0xfec4
  c4:	0c 03       	.word	0x030c;	????	
  c6:	0e 3a       	jl	$-994    	;abs 0xfce4
  c8:	0b 3b       	jl	$-488    	;abs 0xfee0
  ca:	0b 27       	jz	$-488    	;abs 0xfee2
  cc:	0c 11       	rra	r12		
  ce:	01 12       	push	r1		
  d0:	01 40       	mov	r0,	r1	
  d2:	0a 00       	.word	0x000a;	????	
  d4:	00 0e       	.word	0x0e00;	????	
  d6:	2e 01       	.word	0x012e;	????	
  d8:	3f 0c       	.word	0x0c3f;	????	
  da:	03 0e       	.word	0x0e03;	????	
  dc:	3a 0b       	.word	0x0b3a;	????	
  de:	3b 0b       	.word	0x0b3b;	????	
  e0:	27 0c       	.word	0x0c27;	????	
  e2:	49 13       	.word	0x1349;	????	
  e4:	11 01       	.word	0x0111;	????	
  e6:	12 01       	.word	0x0112;	????	
  e8:	40 06       	.word	0x0640;	????	
  ea:	01 13       	reti			;return from interupt
  ec:	00 00       	.word	0x0000;	????	
  ee:	0f 34       	jge	$+32     	;abs 0x10e
  f0:	00 03       	.word	0x0300;	????	
  f2:	0e 3a       	jl	$-994    	;abs 0xfd10
  f4:	0b 3b       	jl	$-488    	;abs 0xff0c
  f6:	0b 49       	mov	r9,	r11	
  f8:	13 02       	.word	0x0213;	????	
  fa:	06 00       	.word	0x0006;	????	
  fc:	00 10       	rrc	r0		
  fe:	2e 00       	.word	0x002e;	????	
 100:	3f 0c       	.word	0x0c3f;	????	
 102:	03 0e       	.word	0x0e03;	????	
 104:	3a 0b       	.word	0x0b3a;	????	
 106:	3b 05       	.word	0x053b;	????	
 108:	11 01       	.word	0x0111;	????	
 10a:	12 01       	.word	0x0112;	????	
 10c:	40 0a       	.word	0x0a40;	????	
 10e:	00 00       	.word	0x0000;	????	
 110:	11 2e       	jc	$-988    	;abs 0xfd34
 112:	01 3f       	jmp	$-508    	;abs 0xff16
 114:	0c 03       	.word	0x030c;	????	
 116:	0e 3a       	jl	$-994    	;abs 0xfd34
 118:	0b 3b       	jl	$-488    	;abs 0xff30
 11a:	05 27       	jz	$-500    	;abs 0xff26
 11c:	0c 11       	rra	r12		
 11e:	01 12       	push	r1		
 120:	01 40       	mov	r0,	r1	
 122:	0a 01       	.word	0x010a;	????	
 124:	13 00       	.word	0x0013;	????	
 126:	00 12       	push	r0		
 128:	05 00       	.word	0x0005;	????	
 12a:	03 08       	.word	0x0803;	????	
 12c:	3a 0b       	.word	0x0b3a;	????	
 12e:	3b 05       	.word	0x053b;	????	
 130:	49 13       	.word	0x1349;	????	
 132:	02 06       	.word	0x0602;	????	
 134:	00 00       	.word	0x0000;	????	
 136:	13 2e       	jc	$-984    	;abs 0xfd5e
 138:	01 3f       	jmp	$-508    	;abs 0xff3c
 13a:	0c 03       	.word	0x030c;	????	
 13c:	0e 3a       	jl	$-994    	;abs 0xfd5a
 13e:	0b 3b       	jl	$-488    	;abs 0xff56
 140:	05 27       	jz	$-500    	;abs 0xff4c
 142:	0c 11       	rra	r12		
 144:	01 12       	push	r1		
 146:	01 40       	mov	r0,	r1	
 148:	06 01       	.word	0x0106;	????	
 14a:	13 00       	.word	0x0013;	????	
 14c:	00 14       	.word	0x1400;	????	
 14e:	0f 00       	.word	0x000f;	????	
 150:	0b 0b       	.word	0x0b0b;	????	
 152:	49 13       	.word	0x1349;	????	
 154:	00 00       	.word	0x0000;	????	
 156:	15 2e       	jc	$-980    	;abs 0xfd82
 158:	01 3f       	jmp	$-508    	;abs 0xff5c
 15a:	0c 03       	.word	0x030c;	????	
 15c:	08 3a       	jl	$-1006   	;abs 0xfd6e
 15e:	0b 3b       	jl	$-488    	;abs 0xff76
 160:	05 27       	jz	$-500    	;abs 0xff6c
 162:	0c 11       	rra	r12		
 164:	01 12       	push	r1		
 166:	01 40       	mov	r0,	r1	
 168:	06 01       	.word	0x0106;	????	
 16a:	13 00       	.word	0x0013;	????	
 16c:	00 16       	.word	0x1600;	????	
 16e:	2e 00       	.word	0x002e;	????	
 170:	3f 0c       	.word	0x0c3f;	????	
 172:	03 0e       	.word	0x0e03;	????	
 174:	3a 0b       	.word	0x0b3a;	????	
 176:	3b 05       	.word	0x053b;	????	
 178:	27 0c       	.word	0x0c27;	????	
 17a:	11 01       	.word	0x0111;	????	
 17c:	12 01       	.word	0x0112;	????	
 17e:	40 06       	.word	0x0640;	????	
 180:	00 00       	.word	0x0000;	????	
 182:	17 1d       	.word	0x1d17;	????	
 184:	01 31       	jn	$+516    	;abs 0x388
 186:	13 11       	rra	#1		;r3 As==01
 188:	01 12       	push	r1		
 18a:	01 58       	add	r8,	r1	
 18c:	0b 59       	add	r9,	r11	
 18e:	05 00       	.word	0x0005;	????	
 190:	00 18       	.word	0x1800;	????	
 192:	05 00       	.word	0x0005;	????	
 194:	31 13       	reti			;return from interupt
 196:	02 06       	.word	0x0602;	????	
 198:	00 00       	.word	0x0000;	????	
 19a:	19 2e       	jc	$-972    	;abs 0xfdce
 19c:	01 3f       	jmp	$-508    	;abs 0xffa0
 19e:	0c 03       	.word	0x030c;	????	
 1a0:	0e 3a       	jl	$-994    	;abs 0xfdbe
 1a2:	0b 3b       	jl	$-488    	;abs 0xffba
 1a4:	05 27       	jz	$-500    	;abs 0xffb0
 1a6:	0c 49       	mov	r9,	r12	
 1a8:	13 11       	rra	#1		;r3 As==01
 1aa:	01 12       	push	r1		
 1ac:	01 40       	mov	r0,	r1	
 1ae:	0a 01       	.word	0x010a;	????	
 1b0:	13 00       	.word	0x0013;	????	
 1b2:	00 1a       	.word	0x1a00;	????	
 1b4:	34 00       	.word	0x0034;	????	
 1b6:	03 0e       	.word	0x0e03;	????	
 1b8:	3a 0b       	.word	0x0b3a;	????	
 1ba:	3b 05       	.word	0x053b;	????	
 1bc:	49 13       	.word	0x1349;	????	
 1be:	00 00       	.word	0x0000;	????	
 1c0:	1b 34       	jge	$+56     	;abs 0x1f8
 1c2:	00 03       	.word	0x0300;	????	
 1c4:	0e 3a       	jl	$-994    	;abs 0xfde2
 1c6:	0b 3b       	jl	$-488    	;abs 0xffde
 1c8:	05 87       	sub	r7,	r5	
 1ca:	40 0e       	.word	0x0e40;	????	
 1cc:	49 13       	.word	0x1349;	????	
 1ce:	3f 0c       	.word	0x0c3f;	????	
 1d0:	3c 0c       	.word	0x0c3c;	????	
 1d2:	00 00       	.word	0x0000;	????	
 1d4:	1c 35       	jge	$+570    	;abs 0x40e
 1d6:	00 49       	br	r9		
 1d8:	13 00       	.word	0x0013;	????	
 1da:	00 1d       	.word	0x1d00;	????	
 1dc:	26 00       	.word	0x0026;	????	
 1de:	49 13       	.word	0x1349;	????	
 1e0:	00 00       	.word	0x0000;	????	
 1e2:	1e 34       	jge	$+62     	;abs 0x220
 1e4:	00 03       	.word	0x0300;	????	
 1e6:	08 3a       	jl	$-1006   	;abs 0xfdf8
 1e8:	0b 3b       	jl	$-488    	;abs 0x0
 1ea:	05 87       	sub	r7,	r5	
 1ec:	40 0e       	.word	0x0e40;	????	
 1ee:	49 13       	.word	0x1349;	????	
 1f0:	3f 0c       	.word	0x0c3f;	????	
 1f2:	3c 0c       	.word	0x0c3c;	????	
 1f4:	00 00       	.word	0x0000;	????	
 1f6:	1f 34       	jge	$+64     	;abs 0x236
 1f8:	00 03       	.word	0x0300;	????	
 1fa:	0e 3a       	jl	$-994    	;abs 0xfe18
 1fc:	0b 3b       	jl	$-488    	;abs 0x14
 1fe:	0b 49       	mov	r9,	r11	
 200:	13 3f       	jmp	$-472    	;abs 0x28
 202:	0c 3c       	jmp	$+26     	;abs 0x21c
 204:	0c 00       	.word	0x000c;	????	
 206:	00 20       	jnz	$+2      	;abs 0x208
 208:	34 00       	.word	0x0034;	????	
 20a:	03 0e       	.word	0x0e03;	????	
 20c:	3a 0b       	.word	0x0b3a;	????	
 20e:	3b 0b       	.word	0x0b3b;	????	
 210:	49 13       	.word	0x1349;	????	
 212:	3f 0c       	.word	0x0c3f;	????	
 214:	02 0a       	.word	0x0a02;	????	
 216:	00 00       	.word	0x0000;	????	
 218:	00 01       	.word	0x0100;	????	
 21a:	11 00       	.word	0x0011;	????	
 21c:	10 06       	.word	0x0610;	????	
 21e:	11 01       	.word	0x0111;	????	
 220:	12 01       	.word	0x0112;	????	
 222:	03 08       	.word	0x0803;	????	
 224:	1b 08       	.word	0x081b;	????	
 226:	25 08       	.word	0x0825;	????	
 228:	13 05       	.word	0x0513;	????	
 22a:	00 00       	.word	0x0000;	????	
 22c:	00 01       	.word	0x0100;	????	
 22e:	11 00       	.word	0x0011;	????	
 230:	10 06       	.word	0x0610;	????	
 232:	11 01       	.word	0x0111;	????	
 234:	12 01       	.word	0x0112;	????	
 236:	03 08       	.word	0x0803;	????	
 238:	1b 08       	.word	0x081b;	????	
 23a:	25 08       	.word	0x0825;	????	
 23c:	13 05       	.word	0x0513;	????	
 23e:	00 00       	.word	0x0000;	????	
 240:	00 01       	.word	0x0100;	????	
 242:	11 00       	.word	0x0011;	????	
 244:	10 06       	.word	0x0610;	????	
 246:	11 01       	.word	0x0111;	????	
 248:	12 01       	.word	0x0112;	????	
 24a:	03 08       	.word	0x0803;	????	
 24c:	1b 08       	.word	0x081b;	????	
 24e:	25 08       	.word	0x0825;	????	
 250:	13 05       	.word	0x0513;	????	
 252:	00 00       	.word	0x0000;	????	
 254:	00 01       	.word	0x0100;	????	
 256:	11 00       	.word	0x0011;	????	
 258:	10 06       	.word	0x0610;	????	
 25a:	11 01       	.word	0x0111;	????	
 25c:	12 01       	.word	0x0112;	????	
 25e:	03 08       	.word	0x0803;	????	
 260:	1b 08       	.word	0x081b;	????	
 262:	25 08       	.word	0x0825;	????	
 264:	13 05       	.word	0x0513;	????	
 266:	00 00       	.word	0x0000;	????	
 268:	00 01       	.word	0x0100;	????	
 26a:	11 00       	.word	0x0011;	????	
 26c:	10 06       	.word	0x0610;	????	
 26e:	11 01       	.word	0x0111;	????	
 270:	12 01       	.word	0x0112;	????	
 272:	03 08       	.word	0x0803;	????	
 274:	1b 08       	.word	0x081b;	????	
 276:	25 08       	.word	0x0825;	????	
 278:	13 05       	.word	0x0513;	????	
 27a:	00 00       	.word	0x0000;	????	
 27c:	00 01       	.word	0x0100;	????	
 27e:	11 00       	.word	0x0011;	????	
 280:	10 06       	.word	0x0610;	????	
 282:	11 01       	.word	0x0111;	????	
 284:	12 01       	.word	0x0112;	????	
 286:	03 08       	.word	0x0803;	????	
 288:	1b 08       	.word	0x081b;	????	
 28a:	25 08       	.word	0x0825;	????	
 28c:	13 05       	.word	0x0513;	????	
 28e:	00 00       	.word	0x0000;	????	
	...

Disassembly of section .debug_line:

00000000 <.debug_line>:
   0:	69 01       	.word	0x0169;	????	
   2:	00 00       	.word	0x0000;	????	
   4:	02 00       	.word	0x0002;	????	
   6:	63 00       	.word	0x0063;	????	
   8:	00 00       	.word	0x0000;	????	
   a:	01 01       	.word	0x0101;	????	
   c:	fb 0e       	.word	0x0efb;	????	
   e:	0d 00       	.word	0x000d;	????	
  10:	01 01       	.word	0x0101;	????	
  12:	01 01       	.word	0x0101;	????	
  14:	00 00       	.word	0x0000;	????	
  16:	00 01       	.word	0x0100;	????	
  18:	00 00       	.word	0x0000;	????	
  1a:	01 2f       	jc	$-508    	;abs 0xfe1e
  1c:	75 73       	subc.b	#-1,	r5	;r3 As==11
  1e:	72 2f       	jc	$-282    	;abs 0xff04
  20:	6c 69       	addc.b	@r9,	r12	
  22:	62 2f       	jc	$-314    	;abs 0xfee8
  24:	67 63       	addc.b	#2,	r7	;r3 As==10
  26:	63 2f       	jc	$-312    	;abs 0xfeee
  28:	6d 73       	subc.b	#2,	r13	;r3 As==10
  2a:	70 34       	jge	$+226    	;abs 0x10c
  2c:	33 30       	jn	$+104    	;abs 0x94
  2e:	2f 34       	jge	$+96     	;abs 0x8e
  30:	2e 35       	jge	$+606    	;abs 0x28e
  32:	2e 33       	jn	$-418    	;abs 0xfe90
  34:	2f 2e       	jc	$-928    	;abs 0xfc94
  36:	2e 2f       	jc	$-418    	;abs 0xfe94
  38:	2e 2e       	jc	$-930    	;abs 0xfc96
  3a:	2f 2e       	jc	$-928    	;abs 0xfc9a
  3c:	2e 2f       	jc	$-418    	;abs 0xfe9a
  3e:	2e 2e       	jc	$-930    	;abs 0xfc9c
  40:	2f 6d       	addc	@r13,	r15	
  42:	73 70       	.word	0x7073;	????	Illegal as 2-op instr
  44:	34 33       	jn	$-406    	;abs 0xfeae
  46:	30 2f       	jc	$-414    	;abs 0xfea8
  48:	69 6e       	addc.b	@r14,	r9	
  4a:	63 6c       	.word	0x6c63;	????	Illegal as 2-op instr
  4c:	75 64       	addc.b	@r4+,	r5	
  4e:	65 00       	.word	0x0065;	????	
  50:	00 6d       	addc	r13,	r0	
  52:	61 69       	addc.b	@r9,	r1	
  54:	6e 2e       	jc	$-802    	;abs 0xfd32
  56:	63 00       	.word	0x0063;	????	
  58:	00 00       	.word	0x0000;	????	
  5a:	00 6d       	addc	r13,	r0	
  5c:	73 70       	.word	0x7073;	????	Illegal as 2-op instr
  5e:	34 33       	jn	$-406    	;abs 0xfec8
  60:	30 66       	addc	@r6+,	r0	
  62:	32 30       	jn	$+102    	;abs 0xc8
  64:	31 32       	jn	$-924    	;abs 0xfcc8
  66:	2e 68       	addc	@r8,	r14	
  68:	00 01       	.word	0x0100;	????	
  6a:	00 00       	.word	0x0000;	????	
  6c:	00 00       	.word	0x0000;	????	
  6e:	03 02       	.word	0x0203;	????	
  70:	aa f8 03 e9 	and	@r8,	-5885(r10);0xe903(r10)
  74:	00 01       	.word	0x0100;	????	
  76:	03 e7       	.word	0xe703;	????	Illegal as 2-op instr
  78:	00 01       	.word	0x0100;	????	
  7a:	32 31       	jn	$+614    	;abs 0x2e0
  7c:	4b 69       	addc.b	r9,	r11	
  7e:	4b 84       	sub.b	r4,	r11	
  80:	67 67       	addc.b	@r7,	r7	
  82:	a2 08       	.word	0x08a2;	????	
  84:	3d 84       	sub	@r4+,	r13	
  86:	67 67       	addc.b	@r7,	r7	
  88:	03 7a       	.word	0x7a03;	????	Illegal as 2-op instr
  8a:	82 03       	.word	0x0382;	????	
  8c:	09 4a       	mov	r10,	r9	
  8e:	4b 68       	addc.b	r8,	r11	
  90:	03 f1       	.word	0xf103;	????	Illegal as 2-op instr
  92:	7e 4a       	mov.b	@r10+,	r14	
  94:	13 67       	.word	0x6713;	????	Illegal as 2-op instr
  96:	bb 9f bb bb 	cmp	@r15+,	-17477(r11);0xbbbb(r11)
  9a:	67 03       	.word	0x0367;	????	
  9c:	62 2e       	jc	$-826    	;abs 0xfd62
  9e:	30 67       	addc	@r7+,	r0	
  a0:	bb 9f 00 02 	cmp	@r15+,	512(r11);0x0200(r11)
  a4:	04 02       	.word	0x0204;	????	
  a6:	2f 00       	.word	0x002f;	????	
  a8:	02 04       	.word	0x0402;	????	
  aa:	02 9d       	cmp	r13,	r2	
  ac:	03 0d       	.word	0x0d03;	????	
  ae:	82 69 03 93 	addc	r9,	&0x9303	
  b2:	01 4a       	mov	r10,	r1	
  b4:	66 4c       	mov.b	@r12,	r6	
  b6:	35 2b       	jnc	$-404    	;abs 0xff22
  b8:	67 67       	addc.b	@r7,	r7	
  ba:	67 08       	.word	0x0867;	????	
  bc:	1c 51 4b 69 	add	26955(r1),r12	;0x694b(r1)
  c0:	68 13       	.word	0x1368;	????	
  c2:	67 67       	addc.b	@r7,	r7	
  c4:	67 67       	addc.b	@r7,	r7	
  c6:	03 29       	jnc	$+520    	;abs 0x2ce
  c8:	2e 15       	.word	0x152e;	????	
  ca:	4b 68       	addc.b	r8,	r11	
  cc:	67 68       	addc.b	@r8,	r7	
  ce:	03 78       	.word	0x7803;	????	Illegal as 2-op instr
  d0:	66 03       	.word	0x0366;	????	
  d2:	0a 2e       	jc	$-1002   	;abs 0xfce8
  d4:	a0 00       	.word	0x00a0;	????	
  d6:	02 04       	.word	0x0402;	????	
  d8:	01 67       	addc	r7,	r1	
  da:	9f 30       	jn	$+320    	;abs 0x21a
  dc:	4b 67       	addc.b	r7,	r11	
  de:	65 68       	addc.b	@r8,	r5	
  e0:	4c 67       	addc.b	r7,	r12	
  e2:	83 83       	sub	#0,	#1	;r3 As==00, r3 As==01
  e4:	00 02       	.word	0x0200;	????	
  e6:	04 01       	.word	0x0104;	????	
  e8:	06 08       	.word	0x0806;	????	
  ea:	74 00       	.word	0x0074;	????	
  ec:	02 04       	.word	0x0402;	????	
  ee:	02 82       	sub	r2,	r2	
  f0:	00 02       	.word	0x0200;	????	
  f2:	04 03       	.word	0x0304;	????	
  f4:	66 00       	.word	0x0066;	????	
  f6:	02 04       	.word	0x0402;	????	
  f8:	03 06       	.word	0x0603;	????	
  fa:	4b 00       	.word	0x004b;	????	
  fc:	02 04       	.word	0x0402;	????	
  fe:	01 06       	.word	0x0601;	????	
 100:	9e 00       	.word	0x009e;	????	
 102:	02 04       	.word	0x0402;	????	
 104:	02 ba       	bit	r10,	r2	
 106:	00 02       	.word	0x0200;	????	
 108:	04 03       	.word	0x0304;	????	
 10a:	9e 00       	.word	0x009e;	????	
 10c:	02 04       	.word	0x0402;	????	
 10e:	03 06       	.word	0x0603;	????	
 110:	4b 67       	addc.b	r7,	r11	
 112:	67 67       	addc.b	@r7,	r7	
 114:	83 67       	addc	r7,	#1	;r3 As==01
 116:	85 67 9f 67 	addc	r7,	26527(r5);0x679f(r5)
 11a:	83 68       	addc	r8,	#1	;r3 As==01
 11c:	85 1a       	.word	0x1a85;	????	
 11e:	00 02       	.word	0x0200;	????	
 120:	04 01       	.word	0x0104;	????	
 122:	06 4a       	mov	r10,	r6	
 124:	00 02       	.word	0x0200;	????	
 126:	04 01       	.word	0x0104;	????	
 128:	06 61       	addc	r1,	r6	
 12a:	67 03       	.word	0x0367;	????	
 12c:	e2 7d 2e 13 	subc.b	@r13,	&0x132e	
 130:	bb 83 bb 03 	sub	#-1,	955(r11);r3 As==11, 0x03bb(r11)
 134:	6c 2e       	jc	$-806    	;abs 0xfe0e
 136:	13 bb       	.word	0xbb13;	????	Illegal as 2-op instr
 138:	83 bc       	bit	r12,	#1	;r3 As==01
 13a:	67 bb       	bit.b	@r11,	r7	
 13c:	bb 68 67 bb 	addc	@r8+,	-17561(r11);0xbb67(r11)
 140:	9f 67 02 02 	addc	514(r7),256(r15);0x0202(r7), 0x0100(r15)
 144:	00 01 
 146:	01 00       	.word	0x0001;	????	
 148:	03 02       	.word	0x0203;	????	
 14a:	38 f8       	and	@r8+,	r8	
 14c:	03 8a       	.word	0x8a03;	????	Illegal as 2-op instr
 14e:	02 01       	.word	0x0102;	????	
 150:	14 68 67 68 	addc	26727(r8),r4	;0x6867(r8)
 154:	67 67       	addc.b	@r7,	r7	
 156:	67 67       	addc.b	@r7,	r7	
 158:	68 4c       	mov.b	@r12,	r8	
 15a:	4b 84       	sub.b	r4,	r11	
 15c:	67 67       	addc.b	@r7,	r7	
 15e:	4b 83       	sub.b	#0,	r11	;r3 As==00
 160:	31 00       	.word	0x0031;	????	
 162:	02 04       	.word	0x0402;	????	
 164:	01 03       	.word	0x0301;	????	
 166:	09 4a       	mov	r10,	r9	
 168:	02 0a       	.word	0x0a02;	????	
 16a:	00 01       	.word	0x0100;	????	
 16c:	01 7e       	subc	r14,	r1	
 16e:	00 00       	.word	0x0000;	????	
 170:	00 02       	.word	0x0200;	????	
 172:	00 6a       	addc	r10,	r0	
 174:	00 00       	.word	0x0000;	????	
 176:	00 01       	.word	0x0100;	????	
 178:	01 fb       	and	r11,	r1	
 17a:	0e 0d       	.word	0x0d0e;	????	
 17c:	00 01       	.word	0x0100;	????	
 17e:	01 01       	.word	0x0101;	????	
 180:	01 00       	.word	0x0001;	????	
 182:	00 00       	.word	0x0000;	????	
 184:	01 00       	.word	0x0001;	????	
 186:	00 01       	.word	0x0100;	????	
 188:	2f 62       	addc	#4,	r15	;r2 As==10
 18a:	75 69       	addc.b	@r9+,	r5	
 18c:	6c 64       	addc.b	@r4,	r12	
 18e:	2f 62       	addc	#4,	r15	;r2 As==10
 190:	75 69       	addc.b	@r9+,	r5	
 192:	6c 64       	addc.b	@r4,	r12	
 194:	64 2f       	jc	$-310    	;abs 0x5e
 196:	67 63       	addc.b	#2,	r7	;r3 As==10
 198:	63 2d       	jc	$+712    	;abs 0x460
 19a:	6d 73       	subc.b	#2,	r13	;r3 As==10
 19c:	70 34       	jge	$+226    	;abs 0x27e
 19e:	33 30       	jn	$+104    	;abs 0x206
 1a0:	2d 34       	jge	$+92     	;abs 0x1fc
 1a2:	2e 35       	jge	$+606    	;abs 0x400
 1a4:	2e 33       	jn	$-418    	;abs 0x2
 1a6:	7e 6d       	addc.b	@r13+,	r14	
 1a8:	73 70       	.word	0x7073;	????	Illegal as 2-op instr
 1aa:	67 63       	addc.b	#2,	r7	;r3 As==10
 1ac:	63 2d       	jc	$+712    	;abs 0x474
 1ae:	32 30       	jn	$+102    	;abs 0x214
 1b0:	31 31       	jn	$+612    	;abs 0x414
 1b2:	30 37       	jge	$-414    	;abs 0x14
 1b4:	31 36       	jge	$-924    	;abs 0xfe18
 1b6:	2f 2e       	jc	$-928    	;abs 0xfe16
 1b8:	2f 67       	addc	@r7,	r15	
 1ba:	63 63       	.word	0x6363;	????	Illegal as 2-op instr
 1bc:	2d 34       	jge	$+92     	;abs 0x218
 1be:	2e 35       	jge	$+606    	;abs 0x41c
 1c0:	2e 33       	jn	$-418    	;abs 0x1e
 1c2:	2f 67       	addc	@r7,	r15	
 1c4:	63 63       	.word	0x6363;	????	Illegal as 2-op instr
 1c6:	2f 63       	addc	#2,	r15	;r3 As==10
 1c8:	6f 6e       	addc.b	@r14,	r15	
 1ca:	66 69       	addc.b	@r9,	r6	
 1cc:	67 2f       	jc	$-304    	;abs 0x9c
 1ce:	6d 73       	subc.b	#2,	r13	;r3 As==10
 1d0:	70 34       	jge	$+226    	;abs 0x2b2
 1d2:	33 30       	jn	$+104    	;abs 0x23a
 1d4:	00 00       	.word	0x0000;	????	
 1d6:	63 72       	.word	0x7263;	????	Illegal as 2-op instr
 1d8:	74 30       	jn	$+234    	;abs 0x2c2
 1da:	2e 53       	incd	r14		
 1dc:	00 01       	.word	0x0100;	????	
 1de:	00 00       	.word	0x0000;	????	
 1e0:	00 00       	.word	0x0000;	????	
 1e2:	03 02       	.word	0x0203;	????	
 1e4:	00 f8       	and	r8,	r0	
 1e6:	03 f5       	.word	0xf503;	????	Illegal as 2-op instr
 1e8:	00 01       	.word	0x0100;	????	
 1ea:	02 04       	.word	0x0402;	????	
 1ec:	00 01       	.word	0x0100;	????	
 1ee:	01 80       	sub	r0,	r1	
 1f0:	00 00       	.word	0x0000;	????	
 1f2:	00 02       	.word	0x0200;	????	
 1f4:	00 6a       	addc	r10,	r0	
 1f6:	00 00       	.word	0x0000;	????	
 1f8:	00 01       	.word	0x0100;	????	
 1fa:	01 fb       	and	r11,	r1	
 1fc:	0e 0d       	.word	0x0d0e;	????	
 1fe:	00 01       	.word	0x0100;	????	
 200:	01 01       	.word	0x0101;	????	
 202:	01 00       	.word	0x0001;	????	
 204:	00 00       	.word	0x0000;	????	
 206:	01 00       	.word	0x0001;	????	
 208:	00 01       	.word	0x0100;	????	
 20a:	2f 62       	addc	#4,	r15	;r2 As==10
 20c:	75 69       	addc.b	@r9+,	r5	
 20e:	6c 64       	addc.b	@r4,	r12	
 210:	2f 62       	addc	#4,	r15	;r2 As==10
 212:	75 69       	addc.b	@r9+,	r5	
 214:	6c 64       	addc.b	@r4,	r12	
 216:	64 2f       	jc	$-310    	;abs 0xe0
 218:	67 63       	addc.b	#2,	r7	;r3 As==10
 21a:	63 2d       	jc	$+712    	;abs 0x4e2
 21c:	6d 73       	subc.b	#2,	r13	;r3 As==10
 21e:	70 34       	jge	$+226    	;abs 0x300
 220:	33 30       	jn	$+104    	;abs 0x288
 222:	2d 34       	jge	$+92     	;abs 0x27e
 224:	2e 35       	jge	$+606    	;abs 0x482
 226:	2e 33       	jn	$-418    	;abs 0x84
 228:	7e 6d       	addc.b	@r13+,	r14	
 22a:	73 70       	.word	0x7073;	????	Illegal as 2-op instr
 22c:	67 63       	addc.b	#2,	r7	;r3 As==10
 22e:	63 2d       	jc	$+712    	;abs 0x4f6
 230:	32 30       	jn	$+102    	;abs 0x296
 232:	31 31       	jn	$+612    	;abs 0x496
 234:	30 37       	jge	$-414    	;abs 0x96
 236:	31 36       	jge	$-924    	;abs 0xfe9a
 238:	2f 2e       	jc	$-928    	;abs 0xfe98
 23a:	2f 67       	addc	@r7,	r15	
 23c:	63 63       	.word	0x6363;	????	Illegal as 2-op instr
 23e:	2d 34       	jge	$+92     	;abs 0x29a
 240:	2e 35       	jge	$+606    	;abs 0x49e
 242:	2e 33       	jn	$-418    	;abs 0xa0
 244:	2f 67       	addc	@r7,	r15	
 246:	63 63       	.word	0x6363;	????	Illegal as 2-op instr
 248:	2f 63       	addc	#2,	r15	;r3 As==10
 24a:	6f 6e       	addc.b	@r14,	r15	
 24c:	66 69       	addc.b	@r9,	r6	
 24e:	67 2f       	jc	$-304    	;abs 0x11e
 250:	6d 73       	subc.b	#2,	r13	;r3 As==10
 252:	70 34       	jge	$+226    	;abs 0x334
 254:	33 30       	jn	$+104    	;abs 0x2bc
 256:	00 00       	.word	0x0000;	????	
 258:	63 72       	.word	0x7263;	????	Illegal as 2-op instr
 25a:	74 30       	jn	$+234    	;abs 0x344
 25c:	2e 53       	incd	r14		
 25e:	00 01       	.word	0x0100;	????	
 260:	00 00       	.word	0x0000;	????	
 262:	00 00       	.word	0x0000;	????	
 264:	03 02       	.word	0x0203;	????	
 266:	04 f8       	and	r8,	r4	
 268:	03 8a       	.word	0x8a03;	????	Illegal as 2-op instr
 26a:	01 01       	.word	0x0101;	????	
 26c:	4b 2f       	jc	$-360    	;abs 0x104
 26e:	02 04       	.word	0x0402;	????	
 270:	00 01       	.word	0x0100;	????	
 272:	01 84       	sub	r4,	r1	
 274:	00 00       	.word	0x0000;	????	
 276:	00 02       	.word	0x0200;	????	
 278:	00 6a       	addc	r10,	r0	
 27a:	00 00       	.word	0x0000;	????	
 27c:	00 01       	.word	0x0100;	????	
 27e:	01 fb       	and	r11,	r1	
 280:	0e 0d       	.word	0x0d0e;	????	
 282:	00 01       	.word	0x0100;	????	
 284:	01 01       	.word	0x0101;	????	
 286:	01 00       	.word	0x0001;	????	
 288:	00 00       	.word	0x0000;	????	
 28a:	01 00       	.word	0x0001;	????	
 28c:	00 01       	.word	0x0100;	????	
 28e:	2f 62       	addc	#4,	r15	;r2 As==10
 290:	75 69       	addc.b	@r9+,	r5	
 292:	6c 64       	addc.b	@r4,	r12	
 294:	2f 62       	addc	#4,	r15	;r2 As==10
 296:	75 69       	addc.b	@r9+,	r5	
 298:	6c 64       	addc.b	@r4,	r12	
 29a:	64 2f       	jc	$-310    	;abs 0x164
 29c:	67 63       	addc.b	#2,	r7	;r3 As==10
 29e:	63 2d       	jc	$+712    	;abs 0x566
 2a0:	6d 73       	subc.b	#2,	r13	;r3 As==10
 2a2:	70 34       	jge	$+226    	;abs 0x384
 2a4:	33 30       	jn	$+104    	;abs 0x30c
 2a6:	2d 34       	jge	$+92     	;abs 0x302
 2a8:	2e 35       	jge	$+606    	;abs 0x506
 2aa:	2e 33       	jn	$-418    	;abs 0x108
 2ac:	7e 6d       	addc.b	@r13+,	r14	
 2ae:	73 70       	.word	0x7073;	????	Illegal as 2-op instr
 2b0:	67 63       	addc.b	#2,	r7	;r3 As==10
 2b2:	63 2d       	jc	$+712    	;abs 0x57a
 2b4:	32 30       	jn	$+102    	;abs 0x31a
 2b6:	31 31       	jn	$+612    	;abs 0x51a
 2b8:	30 37       	jge	$-414    	;abs 0x11a
 2ba:	31 36       	jge	$-924    	;abs 0xff1e
 2bc:	2f 2e       	jc	$-928    	;abs 0xff1c
 2be:	2f 67       	addc	@r7,	r15	
 2c0:	63 63       	.word	0x6363;	????	Illegal as 2-op instr
 2c2:	2d 34       	jge	$+92     	;abs 0x31e
 2c4:	2e 35       	jge	$+606    	;abs 0x522
 2c6:	2e 33       	jn	$-418    	;abs 0x124
 2c8:	2f 67       	addc	@r7,	r15	
 2ca:	63 63       	.word	0x6363;	????	Illegal as 2-op instr
 2cc:	2f 63       	addc	#2,	r15	;r3 As==10
 2ce:	6f 6e       	addc.b	@r14,	r15	
 2d0:	66 69       	addc.b	@r9,	r6	
 2d2:	67 2f       	jc	$-304    	;abs 0x1a2
 2d4:	6d 73       	subc.b	#2,	r13	;r3 As==10
 2d6:	70 34       	jge	$+226    	;abs 0x3b8
 2d8:	33 30       	jn	$+104    	;abs 0x340
 2da:	00 00       	.word	0x0000;	????	
 2dc:	63 72       	.word	0x7263;	????	Illegal as 2-op instr
 2de:	74 30       	jn	$+234    	;abs 0x3c8
 2e0:	2e 53       	incd	r14		
 2e2:	00 01       	.word	0x0100;	????	
 2e4:	00 00       	.word	0x0000;	????	
 2e6:	00 00       	.word	0x0000;	????	
 2e8:	03 02       	.word	0x0203;	????	
 2ea:	0e f8       	and	r8,	r14	
 2ec:	03 9f       	.word	0x9f03;	????	Illegal as 2-op instr
 2ee:	01 01       	.word	0x0101;	????	
 2f0:	4b 4b       	mov.b	r11,	r11	
 2f2:	14 4b 2f 83 	mov	-31953(r11),r4	;0x832f(r11)
 2f6:	02 00       	.word	0x0002;	????	
 2f8:	00 01       	.word	0x0100;	????	
 2fa:	01 84       	sub	r4,	r1	
 2fc:	00 00       	.word	0x0000;	????	
 2fe:	00 02       	.word	0x0200;	????	
 300:	00 6a       	addc	r10,	r0	
 302:	00 00       	.word	0x0000;	????	
 304:	00 01       	.word	0x0100;	????	
 306:	01 fb       	and	r11,	r1	
 308:	0e 0d       	.word	0x0d0e;	????	
 30a:	00 01       	.word	0x0100;	????	
 30c:	01 01       	.word	0x0101;	????	
 30e:	01 00       	.word	0x0001;	????	
 310:	00 00       	.word	0x0000;	????	
 312:	01 00       	.word	0x0001;	????	
 314:	00 01       	.word	0x0100;	????	
 316:	2f 62       	addc	#4,	r15	;r2 As==10
 318:	75 69       	addc.b	@r9+,	r5	
 31a:	6c 64       	addc.b	@r4,	r12	
 31c:	2f 62       	addc	#4,	r15	;r2 As==10
 31e:	75 69       	addc.b	@r9+,	r5	
 320:	6c 64       	addc.b	@r4,	r12	
 322:	64 2f       	jc	$-310    	;abs 0x1ec
 324:	67 63       	addc.b	#2,	r7	;r3 As==10
 326:	63 2d       	jc	$+712    	;abs 0x5ee
 328:	6d 73       	subc.b	#2,	r13	;r3 As==10
 32a:	70 34       	jge	$+226    	;abs 0x40c
 32c:	33 30       	jn	$+104    	;abs 0x394
 32e:	2d 34       	jge	$+92     	;abs 0x38a
 330:	2e 35       	jge	$+606    	;abs 0x58e
 332:	2e 33       	jn	$-418    	;abs 0x190
 334:	7e 6d       	addc.b	@r13+,	r14	
 336:	73 70       	.word	0x7073;	????	Illegal as 2-op instr
 338:	67 63       	addc.b	#2,	r7	;r3 As==10
 33a:	63 2d       	jc	$+712    	;abs 0x602
 33c:	32 30       	jn	$+102    	;abs 0x3a2
 33e:	31 31       	jn	$+612    	;abs 0x5a2
 340:	30 37       	jge	$-414    	;abs 0x1a2
 342:	31 36       	jge	$-924    	;abs 0xffa6
 344:	2f 2e       	jc	$-928    	;abs 0xffa4
 346:	2f 67       	addc	@r7,	r15	
 348:	63 63       	.word	0x6363;	????	Illegal as 2-op instr
 34a:	2d 34       	jge	$+92     	;abs 0x3a6
 34c:	2e 35       	jge	$+606    	;abs 0x5aa
 34e:	2e 33       	jn	$-418    	;abs 0x1ac
 350:	2f 67       	addc	@r7,	r15	
 352:	63 63       	.word	0x6363;	????	Illegal as 2-op instr
 354:	2f 63       	addc	#2,	r15	;r3 As==10
 356:	6f 6e       	addc.b	@r14,	r15	
 358:	66 69       	addc.b	@r9,	r6	
 35a:	67 2f       	jc	$-304    	;abs 0x22a
 35c:	6d 73       	subc.b	#2,	r13	;r3 As==10
 35e:	70 34       	jge	$+226    	;abs 0x440
 360:	33 30       	jn	$+104    	;abs 0x3c8
 362:	00 00       	.word	0x0000;	????	
 364:	63 72       	.word	0x7263;	????	Illegal as 2-op instr
 366:	74 30       	jn	$+234    	;abs 0x450
 368:	2e 53       	incd	r14		
 36a:	00 01       	.word	0x0100;	????	
 36c:	00 00       	.word	0x0000;	????	
 36e:	00 00       	.word	0x0000;	????	
 370:	03 02       	.word	0x0203;	????	
 372:	24 f8       	and	@r8,	r4	
 374:	03 b9       	.word	0xb903;	????	Illegal as 2-op instr
 376:	01 01       	.word	0x0101;	????	
 378:	4b 4b       	mov.b	r11,	r11	
 37a:	14 4b 2f 67 	mov	26415(r11),r4	;0x672f(r11)
 37e:	02 00       	.word	0x0002;	????	
 380:	00 01       	.word	0x0100;	????	
 382:	01 7f       	subc	r15,	r1	
 384:	00 00       	.word	0x0000;	????	
 386:	00 02       	.word	0x0200;	????	
 388:	00 6a       	addc	r10,	r0	
 38a:	00 00       	.word	0x0000;	????	
 38c:	00 01       	.word	0x0100;	????	
 38e:	01 fb       	and	r11,	r1	
 390:	0e 0d       	.word	0x0d0e;	????	
 392:	00 01       	.word	0x0100;	????	
 394:	01 01       	.word	0x0101;	????	
 396:	01 00       	.word	0x0001;	????	
 398:	00 00       	.word	0x0000;	????	
 39a:	01 00       	.word	0x0001;	????	
 39c:	00 01       	.word	0x0100;	????	
 39e:	2f 62       	addc	#4,	r15	;r2 As==10
 3a0:	75 69       	addc.b	@r9+,	r5	
 3a2:	6c 64       	addc.b	@r4,	r12	
 3a4:	2f 62       	addc	#4,	r15	;r2 As==10
 3a6:	75 69       	addc.b	@r9+,	r5	
 3a8:	6c 64       	addc.b	@r4,	r12	
 3aa:	64 2f       	jc	$-310    	;abs 0x274
 3ac:	67 63       	addc.b	#2,	r7	;r3 As==10
 3ae:	63 2d       	jc	$+712    	;abs 0x676
 3b0:	6d 73       	subc.b	#2,	r13	;r3 As==10
 3b2:	70 34       	jge	$+226    	;abs 0x494
 3b4:	33 30       	jn	$+104    	;abs 0x41c
 3b6:	2d 34       	jge	$+92     	;abs 0x412
 3b8:	2e 35       	jge	$+606    	;abs 0x616
 3ba:	2e 33       	jn	$-418    	;abs 0x218
 3bc:	7e 6d       	addc.b	@r13+,	r14	
 3be:	73 70       	.word	0x7073;	????	Illegal as 2-op instr
 3c0:	67 63       	addc.b	#2,	r7	;r3 As==10
 3c2:	63 2d       	jc	$+712    	;abs 0x68a
 3c4:	32 30       	jn	$+102    	;abs 0x42a
 3c6:	31 31       	jn	$+612    	;abs 0x62a
 3c8:	30 37       	jge	$-414    	;abs 0x22a
 3ca:	31 36       	jge	$-924    	;abs 0x2e
 3cc:	2f 2e       	jc	$-928    	;abs 0x2c
 3ce:	2f 67       	addc	@r7,	r15	
 3d0:	63 63       	.word	0x6363;	????	Illegal as 2-op instr
 3d2:	2d 34       	jge	$+92     	;abs 0x42e
 3d4:	2e 35       	jge	$+606    	;abs 0x632
 3d6:	2e 33       	jn	$-418    	;abs 0x234
 3d8:	2f 67       	addc	@r7,	r15	
 3da:	63 63       	.word	0x6363;	????	Illegal as 2-op instr
 3dc:	2f 63       	addc	#2,	r15	;r3 As==10
 3de:	6f 6e       	addc.b	@r14,	r15	
 3e0:	66 69       	addc.b	@r9,	r6	
 3e2:	67 2f       	jc	$-304    	;abs 0x2b2
 3e4:	6d 73       	subc.b	#2,	r13	;r3 As==10
 3e6:	70 34       	jge	$+226    	;abs 0x4c8
 3e8:	33 30       	jn	$+104    	;abs 0x450
 3ea:	00 00       	.word	0x0000;	????	
 3ec:	63 72       	.word	0x7263;	????	Illegal as 2-op instr
 3ee:	74 30       	jn	$+234    	;abs 0x4d8
 3f0:	2e 53       	incd	r14		
 3f2:	00 01       	.word	0x0100;	????	
 3f4:	00 00       	.word	0x0000;	????	
 3f6:	00 00       	.word	0x0000;	????	
 3f8:	03 02       	.word	0x0203;	????	
 3fa:	a0 f8 03 e1 	and	@r8,	0xe103	;PC rel. 0xfe501
 3fe:	01 01       	.word	0x0101;	????	
 400:	67 02       	.word	0x0267;	????	
 402:	00 00       	.word	0x0000;	????	
 404:	01 01       	.word	0x0101;	????	
 406:	7e 00       	.word	0x007e;	????	
 408:	00 00       	.word	0x0000;	????	
 40a:	02 00       	.word	0x0002;	????	
 40c:	6a 00       	.word	0x006a;	????	
 40e:	00 00       	.word	0x0000;	????	
 410:	01 01       	.word	0x0101;	????	
 412:	fb 0e       	.word	0x0efb;	????	
 414:	0d 00       	.word	0x000d;	????	
 416:	01 01       	.word	0x0101;	????	
 418:	01 01       	.word	0x0101;	????	
 41a:	00 00       	.word	0x0000;	????	
 41c:	00 01       	.word	0x0100;	????	
 41e:	00 00       	.word	0x0000;	????	
 420:	01 2f       	jc	$-508    	;abs 0x224
 422:	62 75       	subc.b	@r5,	r2	
 424:	69 6c       	addc.b	@r12,	r9	
 426:	64 2f       	jc	$-310    	;abs 0x2f0
 428:	62 75       	subc.b	@r5,	r2	
 42a:	69 6c       	addc.b	@r12,	r9	
 42c:	64 64       	addc.b	@r4,	r4	
 42e:	2f 67       	addc	@r7,	r15	
 430:	63 63       	.word	0x6363;	????	Illegal as 2-op instr
 432:	2d 6d       	addc	@r13,	r13	
 434:	73 70       	.word	0x7073;	????	Illegal as 2-op instr
 436:	34 33       	jn	$-406    	;abs 0x2a0
 438:	30 2d       	jc	$+610    	;abs 0x69a
 43a:	34 2e       	jc	$-918    	;abs 0xa4
 43c:	35 2e       	jc	$-916    	;abs 0xa8
 43e:	33 7e       	.word	0x7e33;	????	Illegal as 2-op instr
 440:	6d 73       	subc.b	#2,	r13	;r3 As==10
 442:	70 67       	addc.b	@r7+,	r0	
 444:	63 63       	.word	0x6363;	????	Illegal as 2-op instr
 446:	2d 32       	jn	$-932    	;abs 0xa2
 448:	30 31       	jn	$+610    	;abs 0x6aa
 44a:	31 30       	jn	$+100    	;abs 0x4ae
 44c:	37 31       	jn	$+624    	;abs 0x6bc
 44e:	36 2f       	jc	$-402    	;abs 0x2bc
 450:	2e 2f       	jc	$-418    	;abs 0x2ae
 452:	67 63       	addc.b	#2,	r7	;r3 As==10
 454:	63 2d       	jc	$+712    	;abs 0x71c
 456:	34 2e       	jc	$-918    	;abs 0xc0
 458:	35 2e       	jc	$-916    	;abs 0xc4
 45a:	33 2f       	jc	$-408    	;abs 0x2c2
 45c:	67 63       	addc.b	#2,	r7	;r3 As==10
 45e:	63 2f       	jc	$-312    	;abs 0x326
 460:	63 6f       	.word	0x6f63;	????	Illegal as 2-op instr
 462:	6e 66       	addc.b	@r6,	r14	
 464:	69 67       	addc.b	@r7,	r9	
 466:	2f 6d       	addc	@r13,	r15	
 468:	73 70       	.word	0x7073;	????	Illegal as 2-op instr
 46a:	34 33       	jn	$-406    	;abs 0x2d4
 46c:	30 00       	.word	0x0030;	????	
 46e:	00 63       	adc	r0		
 470:	72 74       	subc.b	@r4+,	r2	
 472:	30 2e       	jc	$-926    	;abs 0xd4
 474:	53 00       	.word	0x0053;	????	
 476:	01 00       	.word	0x0001;	????	
 478:	00 00       	.word	0x0000;	????	
 47a:	00 03       	.word	0x0300;	????	
 47c:	02 9c       	cmp	r12,	r2	
 47e:	fb 03       	.word	0x03fb;	????	
 480:	b0 02       	.word	0x02b0;	????	
 482:	01 02       	.word	0x0201;	????	
 484:	02 00       	.word	0x0002;	????	
 486:	01 01       	.word	0x0101;	????	

Disassembly of section .debug_frame:

00000000 <.debug_frame>:
   0:	0e 00       	.word	0x000e;	????	
   2:	00 00       	.word	0x0000;	????	
   4:	ff ff ff ff 	and.b	@r15+,	-1(r15)	;0xffff(r15)
   8:	01 00       	.word	0x0001;	????	
   a:	01 7e       	subc	r14,	r1	
   c:	00 0c       	.word	0x0c00;	????	
   e:	01 02       	.word	0x0201;	????	
  10:	80 01       	.word	0x0180;	????	
  12:	08 00       	.word	0x0008;	????	
  14:	00 00       	.word	0x0000;	????	
  16:	00 00       	.word	0x0000;	????	
  18:	00 00       	.word	0x0000;	????	
  1a:	aa f8 02 00 	and	@r8,	2(r10)	;0x0002(r10)
  1e:	0e 00       	.word	0x000e;	????	
  20:	00 00       	.word	0x0000;	????	
  22:	00 00       	.word	0x0000;	????	
  24:	00 00       	.word	0x0000;	????	
  26:	ac f8 70 00 	and	@r8,	112(r12);0x0070(r12)
  2a:	42 0e       	.word	0x0e42;	????	
  2c:	04 8b       	sub	r11,	r4	
  2e:	02 00       	.word	0x0002;	????	
  30:	08 00       	.word	0x0008;	????	
  32:	00 00       	.word	0x0000;	????	
  34:	00 00       	.word	0x0000;	????	
  36:	00 00       	.word	0x0000;	????	
  38:	1c f9 3c 00 	and	60(r9),	r12	;0x003c(r9)
  3c:	0e 00       	.word	0x000e;	????	
  3e:	00 00       	.word	0x0000;	????	
  40:	00 00       	.word	0x0000;	????	
  42:	00 00       	.word	0x0000;	????	
  44:	58 f9 3c 00 	and.b	60(r9),	r8	;0x003c(r9)
  48:	42 0e       	.word	0x0e42;	????	
  4a:	04 8b       	sub	r11,	r4	
  4c:	02 00       	.word	0x0002;	????	
  4e:	12 00       	.word	0x0012;	????	
  50:	00 00       	.word	0x0000;	????	
  52:	00 00       	.word	0x0000;	????	
  54:	00 00       	.word	0x0000;	????	
  56:	94 f9 46 00 	and	70(r9),	3650(r4);0x0046(r9), 0x0e42(r4)
  5a:	42 0e 
  5c:	04 42       	mov	r2,	r4	
  5e:	0e 06       	.word	0x060e;	????	
  60:	8a 03       	.word	0x038a;	????	
  62:	8b 02       	.word	0x028b;	????	
  64:	08 00       	.word	0x0008;	????	
  66:	00 00       	.word	0x0000;	????	
  68:	00 00       	.word	0x0000;	????	
  6a:	00 00       	.word	0x0000;	????	
  6c:	da f9 1a 00 	and.b	26(r9),	8(r10)	;0x001a(r9), 0x0008(r10)
  70:	08 00 
  72:	00 00       	.word	0x0000;	????	
  74:	00 00       	.word	0x0000;	????	
  76:	00 00       	.word	0x0000;	????	
  78:	f4 f9 3a 00 	and.b	@r9+,	58(r4)	;0x003a(r4)
  7c:	0e 00       	.word	0x000e;	????	
  7e:	00 00       	.word	0x0000;	????	
  80:	00 00       	.word	0x0000;	????	
  82:	00 00       	.word	0x0000;	????	
  84:	2e fa       	and	@r10,	r14	
  86:	1a 00       	.word	0x001a;	????	
  88:	42 0e       	.word	0x0e42;	????	
  8a:	04 8b       	sub	r11,	r4	
  8c:	02 00       	.word	0x0002;	????	
  8e:	12 00       	.word	0x0012;	????	
  90:	00 00       	.word	0x0000;	????	
  92:	00 00       	.word	0x0000;	????	
  94:	00 00       	.word	0x0000;	????	
  96:	48 fa       	and.b	r10,	r8	
  98:	6a 00       	.word	0x006a;	????	
  9a:	42 0e       	.word	0x0e42;	????	
  9c:	04 42       	mov	r2,	r4	
  9e:	0e 06       	.word	0x060e;	????	
  a0:	8a 03       	.word	0x038a;	????	
  a2:	8b 02       	.word	0x028b;	????	
  a4:	18 00       	.word	0x0018;	????	
  a6:	00 00       	.word	0x0000;	????	
  a8:	00 00       	.word	0x0000;	????	
  aa:	00 00       	.word	0x0000;	????	
  ac:	b2 fa 4e 00 	and	@r10+,	&0x004e	
  b0:	42 0e       	.word	0x0e42;	????	
  b2:	04 42       	mov	r2,	r4	
  b4:	0e 06       	.word	0x060e;	????	
  b6:	42 0e       	.word	0x0e42;	????	
  b8:	08 8d       	sub	r13,	r8	
  ba:	04 8e       	sub	r14,	r4	
  bc:	03 8f       	.word	0x8f03;	????	Illegal as 2-op instr
  be:	02 00       	.word	0x0002;	????	
  c0:	08 00       	.word	0x0008;	????	
  c2:	00 00       	.word	0x0000;	????	
  c4:	00 00       	.word	0x0000;	????	
  c6:	00 00       	.word	0x0000;	????	
  c8:	00 fb       	and	r11,	r0	
  ca:	12 00       	.word	0x0012;	????	
  cc:	08 00       	.word	0x0008;	????	
  ce:	00 00       	.word	0x0000;	????	
  d0:	00 00       	.word	0x0000;	????	
  d2:	00 00       	.word	0x0000;	????	
  d4:	12 fb 22 00 	and	34(r11),r2	;0x0022(r11)
  d8:	08 00       	.word	0x0008;	????	
  da:	00 00       	.word	0x0000;	????	
  dc:	00 00       	.word	0x0000;	????	
  de:	00 00       	.word	0x0000;	????	
  e0:	34 fb       	and	@r11+,	r4	
  e2:	68 00       	.word	0x0068;	????	
  e4:	08 00       	.word	0x0008;	????	
  e6:	00 00       	.word	0x0000;	????	
  e8:	00 00       	.word	0x0000;	????	
  ea:	00 00       	.word	0x0000;	????	
  ec:	38 f8       	and	@r8+,	r8	
  ee:	68 00       	.word	0x0068;	????	

Disassembly of section .debug_str:

00000000 <.debug_str>:
   0:	4c 63       	adc.b	r12		
   2:	64 54       	add.b	@r4,	r4	
   4:	65 73       	subc.b	#2,	r5	;r3 As==10
   6:	74 00       	.word	0x0074;	????	
   8:	4c 63       	adc.b	r12		
   a:	64 55       	add.b	@r5,	r4	
   c:	6e 49       	mov.b	@r9,	r14	
   e:	6e 69       	addc.b	@r9,	r14	
  10:	74 00       	.word	0x0074;	????	
  12:	47 4e       	mov.b	r14,	r7	
  14:	55 20       	jnz	$+172    	;abs 0xc0
  16:	43 20       	jnz	$+136    	;abs 0x9e
  18:	34 2e       	jc	$-918    	;abs 0xfc82
  1a:	35 2e       	jc	$-916    	;abs 0xfc86
  1c:	33 00       	.word	0x0033;	????	
  1e:	2a 5f       	add	@r15,	r10	
  20:	5f 54 41 43 	add.b	17217(r4),r15	;0x4341(r4)
  24:	43 52       	.word	0x5243;	????	Illegal as 2-op instr
  26:	30 00       	.word	0x0030;	????	
  28:	2a 5f       	add	@r15,	r10	
  2a:	5f 54 41 43 	add.b	17217(r4),r15	;0x4341(r4)
  2e:	43 52       	.word	0x5243;	????	Illegal as 2-op instr
  30:	31 00       	.word	0x0031;	????	
  32:	54 58 42 79 	add.b	31042(r8),r4	;0x7942(r8)
  36:	74 65       	addc.b	@r5+,	r4	
  38:	00 74       	subc	r4,	r0	
  3a:	61 31       	jn	$+708    	;abs 0x2fe
  3c:	5f 69 73 72 	addc.b	29299(r9),r15	;0x7273(r9)
  40:	00 2a       	jnc	$-1022   	;abs 0xfc42
  42:	5f 5f 43 41 	add.b	16707(r15),r15	;0x4143(r15)
  46:	4c 44       	mov.b	r4,	r12	
  48:	43 4f       	.word	0x4f43;	????	Illegal as 2-op instr
  4a:	5f 31       	jn	$+704    	;abs 0x30a
  4c:	4d 48       	mov.b	r8,	r13	
  4e:	5a 00       	.word	0x005a;	????	
  50:	4c 63       	adc.b	r12		
  52:	64 49       	mov.b	@r9,	r4	
  54:	6e 69       	addc.b	@r9,	r14	
  56:	74 00       	.word	0x0074;	????	
  58:	64 61       	addc.b	@r1,	r4	
  5a:	74 61       	addc.b	@r1+,	r4	
  5c:	00 75       	subc	r5,	r0	
  5e:	6e 73       	subc.b	#2,	r14	;r3 As==10
  60:	69 67       	addc.b	@r7,	r9	
  62:	6e 65       	addc.b	@r5,	r14	
  64:	64 20       	jnz	$+202    	;abs 0x12e
  66:	63 68       	.word	0x6863;	????	Illegal as 2-op instr
  68:	61 72       	subc.b	#4,	r1	;r2 As==10
  6a:	00 64       	addc	r4,	r0	
  6c:	65 6c       	addc.b	@r12,	r5	
  6e:	61 79       	subc.b	@r9,	r1	
  70:	5f 6d 73 00 	addc.b	115(r13),r15	;0x0073(r13)
  74:	4c 63       	adc.b	r12		
  76:	64 57       	add.b	@r7,	r4	
  78:	72 69       	addc.b	@r9+,	r2	
  7a:	74 65       	addc.b	@r5+,	r4	
  7c:	00 2a       	jnc	$-1022   	;abs 0xfc7e
  7e:	5f 5f 50 31 	add.b	12624(r15),r15	;0x3150(r15)
  82:	49 4e       	mov.b	r14,	r9	
  84:	00 2a       	jnc	$-1022   	;abs 0xfc86
  86:	5f 5f 54 41 	add.b	16724(r15),r15	;0x4154(r15)
  8a:	43 43       	clr.b	#0		;r3 As==00
  8c:	54 4c 31 00 	mov.b	49(r12),r4	;0x0031(r12)
  90:	2a 5f       	add	@r15,	r10	
  92:	5f 44 43 4f 	mov.b	20291(r4),r15	;0x4f43(r4)
  96:	43 54       	.word	0x5443;	????	Illegal as 2-op instr
  98:	4c 00       	.word	0x004c;	????	
  9a:	2a 5f       	add	@r15,	r10	
  9c:	5f 54 41 43 	add.b	17217(r4),r15	;0x4341(r4)
  a0:	54 4c 00 4c 	mov.b	19456(r12),r4	;0x4c00(r12)
  a4:	63 64       	.word	0x6463;	????	Illegal as 2-op instr
  a6:	47 61       	addc.b	r1,	r7	
  a8:	6d 6d       	addc.b	@r13,	r13	
  aa:	61 00       	.word	0x0061;	????	
  ac:	6d 61       	addc.b	@r1,	r13	
  ae:	69 6e       	addc.b	@r14,	r9	
  b0:	00 75       	subc	r5,	r0	
  b2:	6e 73       	subc.b	#2,	r14	;r3 As==10
  b4:	69 67       	addc.b	@r7,	r9	
  b6:	6e 65       	addc.b	@r5,	r14	
  b8:	64 20       	jnz	$+202    	;abs 0x182
  ba:	69 6e       	addc.b	@r14,	r9	
  bc:	74 00       	.word	0x0074;	????	
  be:	73 65       	.word	0x6573;	????	Illegal as 2-op instr
  c0:	6e 64       	addc.b	@r4,	r14	
  c2:	00 2a       	jnc	$-1022   	;abs 0xfcc4
  c4:	5f 5f 50 31 	add.b	12624(r15),r15	;0x3150(r15)
  c8:	44 49       	mov.b	r9,	r4	
  ca:	52 00       	.word	0x0052;	????	
  cc:	2a 5f       	add	@r15,	r10	
  ce:	5f 42 43 53 	mov.b	&0x5343,r15	
  d2:	43 54       	.word	0x5443;	????	Illegal as 2-op instr
  d4:	4c 31       	jn	$+666    	;abs 0x36e
  d6:	00 2f       	jc	$-510    	;abs 0xfed8
  d8:	68 6f       	addc.b	@r15,	r8	
  da:	6d 65       	addc.b	@r5,	r13	
  dc:	2f 69       	addc	@r9,	r15	
  de:	61 67       	addc.b	@r7,	r1	
  e0:	65 6e       	addc.b	@r14,	r5	
  e2:	74 2f       	jc	$-278    	;abs 0xffcc
  e4:	77 6f       	addc.b	@r15+,	r7	
  e6:	72 6b       	addc.b	@r11+,	r2	
  e8:	73 70       	.word	0x7073;	????	Illegal as 2-op instr
  ea:	61 63       	addc.b	#2,	r1	;r3 As==10
  ec:	65 2f       	jc	$-308    	;abs 0xffb8
  ee:	6d 61       	addc.b	@r1,	r13	
  f0:	6e 67       	addc.b	@r7,	r14	
  f2:	61 2d       	jc	$+708    	;abs 0x3b6
  f4:	73 63       	.word	0x6373;	????	Illegal as 2-op instr
  f6:	72 65       	addc.b	@r5+,	r2	
  f8:	65 6e       	addc.b	@r14,	r5	
  fa:	2f 4d       	mov	@r13,	r15	
  fc:	53 50       	.word	0x5053;	????	Illegal as 2-op instr
  fe:	34 33       	jn	$-406    	;abs 0xff68
 100:	30 00       	.word	0x0030;	????	
 102:	2a 5f       	add	@r15,	r10	
 104:	5f 50 31 53 	add.b	0x5331,	r15	;PC rel. 0x05439
 108:	45 4c       	mov.b	r12,	r5	
 10a:	00 54       	add	r4,	r0	
 10c:	72 61       	addc.b	@r1+,	r2	
 10e:	6e 73       	subc.b	#2,	r14	;r3 As==10
 110:	6d 69       	addc.b	@r9,	r13	
 112:	74 00       	.word	0x0074;	????	
 114:	4c 63       	adc.b	r12		
 116:	64 45       	mov.b	@r5,	r4	
 118:	78 74       	subc.b	@r4+,	r8	
 11a:	65 6e       	addc.b	@r14,	r5	
 11c:	64 65       	addc.b	@r5,	r4	
 11e:	64 00       	.word	0x0064;	????	
 120:	2a 5f       	add	@r15,	r10	
 122:	5f 54 41 43 	add.b	17217(r4),r15	;0x4341(r4)
 126:	43 54       	.word	0x5443;	????	Illegal as 2-op instr
 128:	4c 30       	jn	$+154    	;abs 0x1c2
 12a:	00 6d       	addc	r13,	r0	
 12c:	61 69       	addc.b	@r9,	r1	
 12e:	6e 2e       	jc	$-802    	;abs 0xfe0c
 130:	63 00       	.word	0x0063;	????	
 132:	42 69       	addc.b	r9,	r2	
 134:	74 43       	mov.b	#-1,	r4	;r3 As==11
 136:	6e 74       	subc.b	@r4,	r14	
 138:	00 5f       	add	r15,	r0	
 13a:	62 72       	subc.b	#4,	r2	;r2 As==10
 13c:	69 65       	addc.b	@r5,	r9	
 13e:	66 5f       	add.b	@r15,	r6	
 140:	70 61       	addc.b	@r1+,	r0	
 142:	75 73       	subc.b	#-1,	r5	;r3 As==11
 144:	65 00       	.word	0x0065;	????	
 146:	2a 5f       	add	@r15,	r10	
 148:	5f 43       	mov.b	#1,	r15	;r3 As==01
 14a:	41 4c       	mov.b	r12,	r1	
 14c:	42 43       	clr.b	r2		
 14e:	31 5f       	add	@r15+,	r1	
 150:	31 4d       	mov	@r13+,	r1	
 152:	48 5a       	add.b	r10,	r8	
 154:	00 2a       	jnc	$-1022   	;abs 0xfd56
 156:	5f 5f 57 44 	add.b	17495(r15),r15	;0x4457(r15)
 15a:	54 43       	mov.b	#1,	r4	;r3 As==01
 15c:	54 4c 00 62 	mov.b	25088(r12),r4	;0x6200(r12)
 160:	6c 5f       	add.b	@r15,	r12	
 162:	69 6e       	addc.b	@r14,	r9	
 164:	69 74       	subc.b	@r4,	r9	
 166:	00 2a       	jnc	$-1022   	;abs 0xfd68
 168:	5f 5f 50 31 	add.b	12624(r15),r15	;0x3150(r15)
 16c:	4f 55       	add.b	r5,	r15	
 16e:	54 00       	.word	0x0054;	????	
 170:	2a 5f       	add	@r15,	r10	
 172:	5f 54 41 52 	add.b	21057(r4),r15	;0x5241(r4)
 176:	00 4c       	br	r12		
 178:	63 64       	.word	0x6463;	????	Illegal as 2-op instr
 17a:	52 65 61 64 	addc.b	25697(r5),r2	;0x6461(r5)
	...

Disassembly of section .debug_loc:

00000000 <.debug_loc>:
   0:	ac f8 ae f8 	and	@r8,	-1874(r12);0xf8ae(r12)
   4:	02 00       	.word	0x0002;	????	
   6:	71 02       	.word	0x0271;	????	
   8:	ae f8 1c f9 	and	@r8,	-1764(r14);0xf91c(r14)
   c:	02 00       	.word	0x0002;	????	
   e:	71 04       	.word	0x0471;	????	
  10:	00 00       	.word	0x0000;	????	
  12:	00 00       	.word	0x0000;	????	
  14:	ac f8 da f8 	and	@r8,	-1830(r12);0xf8da(r12)
  18:	01 00       	.word	0x0001;	????	
  1a:	5f 00       	.word	0x005f;	????	
  1c:	00 00       	.word	0x0000;	????	
  1e:	00 d6       	bis	r6,	r0	
  20:	f8 da f8 02 	bis.b	@r10+,	760(r8)	;0x02f8(r8)
  24:	00 30       	jn	$+2      	;abs 0x26
  26:	9f 00       	.word	0x009f;	????	
  28:	00 00       	.word	0x0000;	????	
  2a:	00 58       	add	r8,	r0	
  2c:	f9 5a f9 02 	add.b	@r10+,	761(r9)	;0x02f9(r9)
  30:	00 71       	subc	r1,	r0	
  32:	02 5a       	add	r10,	r2	
  34:	f9 94 f9 02 	cmp.b	@r4+,	761(r9)	;0x02f9(r9)
  38:	00 71       	subc	r1,	r0	
  3a:	04 00       	.word	0x0004;	????	
  3c:	00 00       	.word	0x0000;	????	
  3e:	00 76       	subc	r6,	r0	
  40:	f9 78 f9 02 	subc.b	@r8+,	761(r9)	;0x02f9(r9)
  44:	00 30       	jn	$+2      	;abs 0x46
  46:	9f 84 f9 92 	sub	-27911(r4),505(r15);0x92f9(r4), 0x01f9(r15)
  4a:	f9 01 
  4c:	00 5b       	add	r11,	r0	
  4e:	00 00       	.word	0x0000;	????	
  50:	00 00       	.word	0x0000;	????	
  52:	94 f9 96 f9 	and	-1642(r9),2(r4)	;0xf996(r9), 0x0002(r4)
  56:	02 00 
  58:	71 02       	.word	0x0271;	????	
  5a:	96 f9 98 f9 	and	-1640(r9),2(r6)	;0xf998(r9), 0x0002(r6)
  5e:	02 00 
  60:	71 04       	.word	0x0471;	????	
  62:	98 f9 da f9 	and	-1574(r9),2(r8)	;0xf9da(r9), 0x0002(r8)
  66:	02 00 
  68:	71 06       	.word	0x0671;	????	
  6a:	00 00       	.word	0x0000;	????	
  6c:	00 00       	.word	0x0000;	????	
  6e:	94 f9 a0 f9 	and	-1632(r9),1(r4)	;0xf9a0(r9), 0x0001(r4)
  72:	01 00 
  74:	5f a0 f9 d6 	dadd.b	0xd6f9,	r15	;PC rel. 0xfd771
  78:	f9 01       	.word	0x01f9;	????	
  7a:	00 5a       	add	r10,	r0	
  7c:	00 00       	.word	0x0000;	????	
  7e:	00 00       	.word	0x0000;	????	
  80:	9a f9 a2 f9 	and	-1630(r9),2(r10)	;0xf9a2(r9), 0x0002(r10)
  84:	02 00 
  86:	30 9f       	cmp	@r15+,	r0	
  88:	00 00       	.word	0x0000;	????	
  8a:	00 00       	.word	0x0000;	????	
  8c:	9a f9 a2 f9 	and	-1630(r9),2(r10)	;0xf9a2(r9), 0x0002(r10)
  90:	02 00 
  92:	30 9f       	cmp	@r15+,	r0	
  94:	c4 f9 da f9 	and.b	r9,	-1574(r4);0xf9da(r4)
  98:	01 00       	.word	0x0001;	????	
  9a:	5f 00       	.word	0x005f;	????	
  9c:	00 00       	.word	0x0000;	????	
  9e:	00 f4       	and	r4,	r0	
  a0:	f9 12       	.word	0x12f9;	????	
  a2:	fa 01       	.word	0x01fa;	????	
  a4:	00 5f       	add	r15,	r0	
  a6:	00 00       	.word	0x0000;	????	
  a8:	00 00       	.word	0x0000;	????	
  aa:	2e fa       	and	@r10,	r14	
  ac:	30 fa       	and	@r10+,	r0	
  ae:	02 00       	.word	0x0002;	????	
  b0:	71 02       	.word	0x0271;	????	
  b2:	30 fa       	and	@r10+,	r0	
  b4:	48 fa       	and.b	r10,	r8	
  b6:	02 00       	.word	0x0002;	????	
  b8:	71 04       	.word	0x0471;	????	
  ba:	00 00       	.word	0x0000;	????	
  bc:	00 00       	.word	0x0000;	????	
  be:	2e fa       	and	@r10,	r14	
  c0:	34 fa       	and	@r10+,	r4	
  c2:	01 00       	.word	0x0001;	????	
  c4:	5f 34       	jge	$+192    	;abs 0x184
  c6:	fa 3a       	jl	$-522    	;abs 0xfebc
  c8:	fa 01       	.word	0x01fa;	????	
  ca:	00 5b       	add	r11,	r0	
  cc:	3a fa       	and	@r10+,	r10	
  ce:	46 fa       	and.b	r10,	r6	
  d0:	01 00       	.word	0x0001;	????	
  d2:	5b 00       	.word	0x005b;	????	
  d4:	00 00       	.word	0x0000;	????	
  d6:	00 48       	br	r8		
  d8:	fa 4a fa 02 	mov.b	@r10+,	762(r10);0x02fa(r10)
  dc:	00 71       	subc	r1,	r0	
  de:	02 4a       	mov	r10,	r2	
  e0:	fa 4c fa 02 	mov.b	@r12+,	762(r10);0x02fa(r10)
  e4:	00 71       	subc	r1,	r0	
  e6:	04 4c       	mov	r12,	r4	
  e8:	fa b2 fa 02 	bit.b	#8,	762(r10);r2 As==11, 0x02fa(r10)
  ec:	00 71       	subc	r1,	r0	
  ee:	06 00       	.word	0x0006;	????	
  f0:	00 00       	.word	0x0000;	????	
  f2:	00 48       	br	r8		
  f4:	fa 52 fa 01 	add.b	#8,	506(r10);r2 As==11, 0x01fa(r10)
  f8:	00 5f       	add	r15,	r0	
  fa:	52 fa 96 fa 	and.b	-1386(r10),r2	;0xfa96(r10)
  fe:	01 00       	.word	0x0001;	????	
 100:	5a 9e fa a2 	cmp.b	-23814(r14),r10	;0xa2fa(r14)
 104:	fa 01       	.word	0x01fa;	????	
 106:	00 5a       	add	r10,	r0	
 108:	00 00       	.word	0x0000;	????	
 10a:	00 00       	.word	0x0000;	????	
 10c:	b2 fa b4 fa 	and	@r10+,	&0xfab4	
 110:	02 00       	.word	0x0002;	????	
 112:	71 02       	.word	0x0271;	????	
 114:	b4 fa b6 fa 	and	@r10+,	-1354(r4);0xfab6(r4)
 118:	02 00       	.word	0x0002;	????	
 11a:	71 04       	.word	0x0471;	????	
 11c:	b6 fa b8 fa 	and	@r10+,	-1352(r6);0xfab8(r6)
 120:	02 00       	.word	0x0002;	????	
 122:	71 06       	.word	0x0671;	????	
 124:	b8 fa 00 fb 	and	@r10+,	-1280(r8);0xfb00(r8)
 128:	02 00       	.word	0x0002;	????	
 12a:	71 08       	.word	0x0871;	????	
 12c:	00 00       	.word	0x0000;	????	
 12e:	00 00       	.word	0x0000;	????	
 130:	00 fb       	and	r11,	r0	
 132:	0c fb       	and	r11,	r12	
 134:	01 00       	.word	0x0001;	????	
 136:	5f 0c       	.word	0x0c5f;	????	
 138:	fb 12       	.word	0x12fb;	????	
 13a:	fb 01       	.word	0x01fb;	????	
 13c:	00 5f       	add	r15,	r0	
 13e:	00 00       	.word	0x0000;	????	
 140:	00 00       	.word	0x0000;	????	
 142:	04 fb       	and	r11,	r4	
 144:	0a fb       	and	r11,	r10	
 146:	04 00       	.word	0x0004;	????	
 148:	0a 4d       	mov	r13,	r10	
 14a:	01 9f       	cmp	r15,	r1	
 14c:	00 00       	.word	0x0000;	????	
	...

Disassembly of section .debug_pubtypes:

00000000 <.debug_pubtypes>:
   0:	0e 00       	.word	0x000e;	????	
   2:	00 00       	.word	0x0000;	????	
   4:	02 00       	.word	0x0002;	????	
   6:	00 00       	.word	0x0000;	????	
   8:	00 00       	.word	0x0000;	????	
   a:	ba 04       	.word	0x04ba;	????	
   c:	00 00       	.word	0x0000;	????	
   e:	00 00       	.word	0x0000;	????	
	...

Disassembly of section .debug_ranges:

00000000 <.debug_ranges>:
   0:	aa f8 9c fb 	and	@r8,	-1124(r10);0xfb9c(r10)
   4:	38 f8       	and	@r8+,	r8	
   6:	a0 f8 00 00 	and	@r8,	0x0000	;PC rel. 0x0000a
	...
