
main.elf:     file format elf32-msp430


Disassembly of section .text:

0000f800 <__init_stack>:
    f800:	31 40 80 02 	mov	#640,	r1	;#0x0280

0000f804 <__low_level_init>:
    f804:	15 42 20 01 	mov	&0x0120,r5	
    f808:	75 f3       	and.b	#-1,	r5	;r3 As==11
    f80a:	35 d0 08 5a 	bis	#23048,	r5	;#0x5a08

0000f80e <__do_copy_data>:
    f80e:	3f 40 00 00 	mov	#0,	r15	;#0x0000
    f812:	0f 93       	tst	r15		
    f814:	07 24       	jz	$+16     	;abs 0xf824
    f816:	82 45 20 01 	mov	r5,	&0x0120	
    f81a:	2f 83       	decd	r15		
    f81c:	9f 4f 9e ff 	mov	-98(r15),512(r15);0xff9e(r15), 0x0200(r15)
    f820:	00 02 
    f822:	f9 23       	jnz	$-12     	;abs 0xf816

0000f824 <__do_clear_bss>:
    f824:	3f 40 04 00 	mov	#4,	r15	;#0x0004
    f828:	0f 93       	tst	r15		
    f82a:	06 24       	jz	$+14     	;abs 0xf838
    f82c:	82 45 20 01 	mov	r5,	&0x0120	
    f830:	1f 83       	dec	r15		
    f832:	cf 43 00 02 	mov.b	#0,	512(r15);r3 As==00, 0x0200(r15)
    f836:	fa 23       	jnz	$-10     	;abs 0xf82c

0000f838 <main>:
	TACTL = TASSEL_2 + MC_1;   // SMCLK, up mode
}

int main(void){
	char data;
	WDTCTL = WDTPW + WDTHOLD;               // Stop WDT
    f838:	b2 40 80 5a 	mov	#23168,	&0x0120	;#0x5a80
    f83c:	20 01 

	BCSCTL1 = CALBC1_1MHZ; // Set range
    f83e:	d2 42 ff 10 	mov.b	&0x10ff,&0x0057	
    f842:	57 00 
	DCOCTL = CALDCO_1MHZ; // SMCLK = DCO = 1MHz
    f844:	d2 42 fe 10 	mov.b	&0x10fe,&0x0056	
    f848:	56 00 

	P1SEL |= TXD | PIN_BL;
    f84a:	f2 d0 06 00 	bis.b	#6,	&0x0026	;#0x0006
    f84e:	26 00 
	P1DIR |= PIN_RESET | TXD | PIN_BL;
    f850:	f2 d0 07 00 	bis.b	#7,	&0x0022	;#0x0007
    f854:	22 00 
	P1DIR |= PIN_NCS;
    f856:	f2 d0 10 00 	bis.b	#16,	&0x0022	;#0x0010
    f85a:	22 00 
	P1DIR |= PIN_MOSI;
    f85c:	f2 d0 40 00 	bis.b	#64,	&0x0022	;#0x0040
    f860:	22 00 
	P1DIR |= PIN_SCLK;
    f862:	f2 d0 20 00 	bis.b	#32,	&0x0022	;#0x0020
    f866:	22 00 

	P1OUT |= PIN_RESET;
    f868:	d2 d3 21 00 	bis.b	#1,	&0x0021	;r3 As==01
	delay_ms(1000); // Wait for power to become stable.
    f86c:	3f 40 e8 03 	mov	#1000,	r15	;#0x03e8
    f870:	b0 12 38 ff 	call	#0xff38	
	//delay_ms(1000); // Wait for power to become stable.
	//delay_ms(1000); // Wait for power to become stable.
	//delay_ms(1000); // Wait for power to become stable.
	//delay_ms(1000); // Wait for power to become stable.

	P1OUT &= ~PIN_RESET;
    f874:	f2 f0 fe ff 	and.b	#-2,	&0x0021	;#0xfffe
    f878:	21 00 
	delay_ms(1); // Page 13 in manual for LCD
    f87a:	1f 43       	mov	#1,	r15	;r3 As==01
    f87c:	b0 12 38 ff 	call	#0xff38	
	P1OUT |= PIN_RESET;
    f880:	d2 d3 21 00 	bis.b	#1,	&0x0021	;r3 As==01
	delay_ms(6); // Page 13 in manual for LCD
    f884:	3f 40 06 00 	mov	#6,	r15	;#0x0006
    f888:	b0 12 38 ff 	call	#0xff38	
	__bis_SR_register(GIE); 	// interrupts enabled
    f88c:	32 d2       	eint			

	send("Start\n");
    f88e:	3f 40 8e ff 	mov	#-114,	r15	;#0xff8e
    f892:	b0 12 dc f9 	call	#0xf9dc	
	LcdInit();
    f896:	b0 12 6c ff 	call	#0xff6c	
	LcdTest();
    f89a:	b0 12 2c fc 	call	#0xfc2c	
	send("Done\n");
    f89e:	3f 40 95 ff 	mov	#-107,	r15	;#0xff95
    f8a2:	b0 12 dc f9 	call	#0xf9dc	

	bl_init();
    f8a6:	b0 12 88 f9 	call	#0xf988	

	while(1){
		//delay_ms(1000);
		P1OUT &= ~PIN_NCS; 
    f8aa:	f2 f0 ef ff 	and.b	#-17,	&0x0021	;#0xffef
    f8ae:	21 00 
		LcdWrite(LCD_C, 0x0E, 0);
    f8b0:	4d 43       	clr.b	r13		
    f8b2:	7e 40 0e 00 	mov.b	#14,	r14	;#0x000e
    f8b6:	4f 4d       	mov.b	r13,	r15	
    f8b8:	b0 12 d2 f8 	call	#0xf8d2	
		data = LcdRead(1);
    f8bc:	5f 43       	mov.b	#1,	r15	;r3 As==01
    f8be:	b0 12 42 f9 	call	#0xf942	
		hex(data);
    f8c2:	b0 12 f6 f9 	call	#0xf9f6	
    f8c6:	f1 3f       	jmp	$-28     	;abs 0xf8aa

0000f8c8 <__stop_progExec__>:
    f8c8:	32 d0 f0 00 	bis	#240,	r2	;#0x00f0
    f8cc:	fd 3f       	jmp	$-4      	;abs 0xf8c8

0000f8ce <__ctors_end>:
    f8ce:	30 40 9c ff 	br	#0xff9c	

0000f8d2 <LcdWrite>:
	send("\n");
}


// Write data to the display
void LcdWrite(char dnc, char data, char cs){
    f8d2:	0b 12       	push	r11		
	int i;

	if(cs)
    f8d4:	4d 93       	tst.b	r13		
    f8d6:	03 24       	jz	$+8      	;abs 0xf8de
		P1OUT &= ~PIN_NCS; // Select Chip Enable low
    f8d8:	f2 f0 ef ff 	and.b	#-17,	&0x0021	;#0xffef
    f8dc:	21 00 

	// Output the control bit DNC
	if(dnc)
    f8de:	4f 93       	tst.b	r15		
    f8e0:	04 24       	jz	$+10     	;abs 0xf8ea
		P1OUT |= PIN_MOSI;
    f8e2:	f2 d0 40 00 	bis.b	#64,	&0x0021	;#0x0040
    f8e6:	21 00 
    f8e8:	03 3c       	jmp	$+8      	;abs 0xf8f0
	else
		P1OUT &= ~PIN_MOSI;
    f8ea:	f2 f0 bf ff 	and.b	#-65,	&0x0021	;#0xffbf
    f8ee:	21 00 
	P1OUT &= ~PIN_SCLK; // Clock pin low
    f8f0:	f2 f0 df ff 	and.b	#-33,	&0x0021	;#0xffdf
    f8f4:	21 00 
	P1OUT |= PIN_SCLK; // Clock pin high
    f8f6:	f2 d0 20 00 	bis.b	#32,	&0x0021	;#0x0020
    f8fa:	21 00 
    f8fc:	3f 40 07 00 	mov	#7,	r15	;#0x0007

	// Output the data byte
	for(i=0; i<8; i++){
		if(data & (0x01<<(7-i)))
    f900:	4c 4e       	mov.b	r14,	r12	
    f902:	8c 11       	sxt	r12		
    f904:	0b 4f       	mov	r15,	r11	
    f906:	0b 93       	tst	r11		
    f908:	03 24       	jz	$+8      	;abs 0xf910
    f90a:	0c 11       	rra	r12		
    f90c:	1b 83       	dec	r11		
    f90e:	fd 23       	jnz	$-4      	;abs 0xf90a
    f910:	1c f3       	and	#1,	r12	;r3 As==01
    f912:	04 24       	jz	$+10     	;abs 0xf91c
			P1OUT |= PIN_MOSI;
    f914:	f2 d0 40 00 	bis.b	#64,	&0x0021	;#0x0040
    f918:	21 00 
    f91a:	03 3c       	jmp	$+8      	;abs 0xf922
		else
			P1OUT &= ~PIN_MOSI;
    f91c:	f2 f0 bf ff 	and.b	#-65,	&0x0021	;#0xffbf
    f920:	21 00 
		P1OUT &= ~PIN_SCLK; // Clock pin low
    f922:	f2 f0 df ff 	and.b	#-33,	&0x0021	;#0xffdf
    f926:	21 00 
		P1OUT |= PIN_SCLK; // Clock pin high
    f928:	f2 d0 20 00 	bis.b	#32,	&0x0021	;#0x0020
    f92c:	21 00 
    f92e:	3f 53       	add	#-1,	r15	;r3 As==11
		P1OUT &= ~PIN_MOSI;
	P1OUT &= ~PIN_SCLK; // Clock pin low
	P1OUT |= PIN_SCLK; // Clock pin high

	// Output the data byte
	for(i=0; i<8; i++){
    f930:	3f 93       	cmp	#-1,	r15	;r3 As==11
    f932:	e6 23       	jnz	$-50     	;abs 0xf900
			P1OUT &= ~PIN_MOSI;
		P1OUT &= ~PIN_SCLK; // Clock pin low
		P1OUT |= PIN_SCLK; // Clock pin high
	}

	if(cs)
    f934:	4d 93       	tst.b	r13		
    f936:	03 24       	jz	$+8      	;abs 0xf93e
		P1OUT |= PIN_NCS; // Select Chip Enable High
    f938:	f2 d0 10 00 	bis.b	#16,	&0x0021	;#0x0010
    f93c:	21 00 

}
    f93e:	3b 41       	pop	r11		
    f940:	30 41       	ret			

0000f942 <LcdRead>:

char LcdRead(char cs){
    f942:	0b 12       	push	r11		
    f944:	0a 12       	push	r10		
    f946:	4a 4f       	mov.b	r15,	r10	
    f948:	3e 40 07 00 	mov	#7,	r14	;#0x0007
	int i;
	char data = 0;
    f94c:	4f 43       	clr.b	r15		
	// Get the data byte
	for(i=0; i<8; i++){
		P1OUT &= ~PIN_SCLK; // Clock pin low
		P1OUT |= PIN_SCLK; // Clock pin high
		if(P1IN & PIN_MISO){
			data += (0x01<<(7-i));
    f94e:	1b 43       	mov	#1,	r11	;r3 As==01
	int i;
	char data = 0;

	// Get the data byte
	for(i=0; i<8; i++){
		P1OUT &= ~PIN_SCLK; // Clock pin low
    f950:	f2 f0 df ff 	and.b	#-33,	&0x0021	;#0xffdf
    f954:	21 00 
		P1OUT |= PIN_SCLK; // Clock pin high
    f956:	f2 d0 20 00 	bis.b	#32,	&0x0021	;#0x0020
    f95a:	21 00 
		if(P1IN & PIN_MISO){
    f95c:	c2 93 20 00 	tst.b	&0x0020	
    f960:	08 34       	jge	$+18     	;abs 0xf972
			data += (0x01<<(7-i));
    f962:	0c 4e       	mov	r14,	r12	
    f964:	0d 4b       	mov	r11,	r13	
    f966:	0c 93       	tst	r12		
    f968:	03 24       	jz	$+8      	;abs 0xf970
    f96a:	0d 5d       	rla	r13		
    f96c:	1c 83       	dec	r12		
    f96e:	fd 23       	jnz	$-4      	;abs 0xf96a
    f970:	4f 5d       	add.b	r13,	r15	
    f972:	3e 53       	add	#-1,	r14	;r3 As==11
char LcdRead(char cs){
	int i;
	char data = 0;

	// Get the data byte
	for(i=0; i<8; i++){
    f974:	3e 93       	cmp	#-1,	r14	;r3 As==11
    f976:	ec 23       	jnz	$-38     	;abs 0xf950
		P1OUT |= PIN_SCLK; // Clock pin high
		if(P1IN & PIN_MISO){
			data += (0x01<<(7-i));
		}
	}
	if(cs)
    f978:	4a 93       	tst.b	r10		
    f97a:	03 24       	jz	$+8      	;abs 0xf982
		P1OUT |= PIN_NCS; // Select Chip Enable High
    f97c:	f2 d0 10 00 	bis.b	#16,	&0x0021	;#0x0010
    f980:	21 00 

	return data;
}
    f982:	3a 41       	pop	r10		
    f984:	3b 41       	pop	r11		
    f986:	30 41       	ret			

0000f988 <bl_init>:

void bl_init(){
	CCR0 = 10000-1;             // PWM Period
    f988:	b2 40 0f 27 	mov	#9999,	&0x0172	;#0x270f
    f98c:	72 01 
	CCTL1 = OUTMOD_7;          // CCR1 reset/set
    f98e:	b2 40 e0 00 	mov	#224,	&0x0164	;#0x00e0
    f992:	64 01 
	CCR1 = 5000;                // CCR1 PWM duty cycle
    f994:	b2 40 88 13 	mov	#5000,	&0x0174	;#0x1388
    f998:	74 01 
	TACTL = TASSEL_2 + MC_1;   // SMCLK, up mode
    f99a:	b2 40 10 02 	mov	#528,	&0x0160	;#0x0210
    f99e:	60 01 
}
    f9a0:	30 41       	ret			

0000f9a2 <Transmit>:

// Function Transmits Character from TXByte
void Transmit(char c){
	TXByte = c;

	CCTL0 = OUT; // TXD Idle as Mark
    f9a2:	a2 42 62 01 	mov	#4,	&0x0162	;r2 As==10
	TACTL = TASSEL_2 + MC_2; // SMCLK, continuous mode
    f9a6:	b2 40 20 02 	mov	#544,	&0x0160	;#0x0220
    f9aa:	60 01 

	BitCnt = 0xA; // Load Bit counter, 8 bits + ST/SP
    f9ac:	f2 40 0a 00 	mov.b	#10,	&0x0200	;#0x000a
    f9b0:	00 02 
	CCR0 = TAR; // Initialize compare register
    f9b2:	92 42 70 01 	mov	&0x0170,&0x0172	
    f9b6:	72 01 

	CCR0 += Bit_time; // Set time till first bit
    f9b8:	b2 50 68 00 	add	#104,	&0x0172	;#0x0068
    f9bc:	72 01 
	}
}

// Function Transmits Character from TXByte
void Transmit(char c){
	TXByte = c;
    f9be:	8f 11       	sxt	r15		
	BitCnt = 0xA; // Load Bit counter, 8 bits + ST/SP
	CCR0 = TAR; // Initialize compare register

	CCR0 += Bit_time; // Set time till first bit
	TXByte |= 0x100; // Add stop bit to TXByte (which is logical 1)
	TXByte = TXByte << 1; // Add start bit (which is logical 0)
    f9c0:	3f d0 00 01 	bis	#256,	r15	;#0x0100
    f9c4:	0f 5f       	rla	r15		
    f9c6:	82 4f 02 02 	mov	r15,	&0x0202	

	CCTL0 = CCIS0 + OUTMOD0 + CCIE; // Set signal, intial value, enable interrupts
    f9ca:	b2 40 30 10 	mov	#4144,	&0x0162	;#0x1030
    f9ce:	62 01 
	while ( CCTL0 & CCIE ); // Wait for previous TX completion
    f9d0:	1f 42 62 01 	mov	&0x0162,r15	
    f9d4:	3f f0 10 00 	and	#16,	r15	;#0x0010
    f9d8:	fb 23       	jnz	$-8      	;abs 0xf9d0
}
    f9da:	30 41       	ret			

0000f9dc <send>:

void send(char* str){
    f9dc:	0b 12       	push	r11		
    f9de:	0b 4f       	mov	r15,	r11	
	while(*str != '\0')
    f9e0:	6f 4f       	mov.b	@r15,	r15	
    f9e2:	4f 93       	tst.b	r15		
    f9e4:	06 24       	jz	$+14     	;abs 0xf9f2
		Transmit(*str++);
    f9e6:	1b 53       	inc	r11		
    f9e8:	b0 12 a2 f9 	call	#0xf9a2	
	CCTL0 = CCIS0 + OUTMOD0 + CCIE; // Set signal, intial value, enable interrupts
	while ( CCTL0 & CCIE ); // Wait for previous TX completion
}

void send(char* str){
	while(*str != '\0')
    f9ec:	6f 4b       	mov.b	@r11,	r15	
    f9ee:	4f 93       	tst.b	r15		
    f9f0:	fa 23       	jnz	$-10     	;abs 0xf9e6
		Transmit(*str++);
}
    f9f2:	3b 41       	pop	r11		
    f9f4:	30 41       	ret			

0000f9f6 <hex>:

void hex(char x){
    f9f6:	0b 12       	push	r11		
    f9f8:	0a 12       	push	r10		
    f9fa:	4a 4f       	mov.b	r15,	r10	
	Transmit('0');
    f9fc:	7f 40 30 00 	mov.b	#48,	r15	;#0x0030
    fa00:	b0 12 a2 f9 	call	#0xf9a2	
	Transmit('x');
    fa04:	7f 40 78 00 	mov.b	#120,	r15	;#0x0078
    fa08:	b0 12 a2 f9 	call	#0xf9a2	
	Transmit( TO_HEX(((x & 0x00F0) >> 4)) );
    fa0c:	4b 4a       	mov.b	r10,	r11	
    fa0e:	8b 11       	sxt	r11		
    fa10:	0e 4b       	mov	r11,	r14	
    fa12:	3e f0 f0 00 	and	#240,	r14	;#0x00f0
    fa16:	0e 11       	rra	r14		
    fa18:	0e 11       	rra	r14		
    fa1a:	0e 11       	rra	r14		
    fa1c:	0e 11       	rra	r14		
    fa1e:	3e 90 0a 00 	cmp	#10,	r14	;#0x000a
    fa22:	04 34       	jge	$+10     	;abs 0xfa2c
    fa24:	4f 4e       	mov.b	r14,	r15	
    fa26:	7f 50 30 00 	add.b	#48,	r15	;#0x0030
    fa2a:	03 3c       	jmp	$+8      	;abs 0xfa32
    fa2c:	4f 4e       	mov.b	r14,	r15	
    fa2e:	7f 50 37 00 	add.b	#55,	r15	;#0x0037
    fa32:	b0 12 a2 f9 	call	#0xf9a2	
	Transmit( TO_HEX(((x & 0x000F) >> 0)) );
    fa36:	3b f0 0f 00 	and	#15,	r11	;#0x000f
    fa3a:	3b 90 0a 00 	cmp	#10,	r11	;#0x000a
    fa3e:	06 34       	jge	$+14     	;abs 0xfa4c
    fa40:	7a f0 0f 00 	and.b	#15,	r10	;#0x000f
    fa44:	4f 4a       	mov.b	r10,	r15	
    fa46:	7f 50 30 00 	add.b	#48,	r15	;#0x0030
    fa4a:	05 3c       	jmp	$+12     	;abs 0xfa56
    fa4c:	7a f0 0f 00 	and.b	#15,	r10	;#0x000f
    fa50:	4f 4a       	mov.b	r10,	r15	
    fa52:	7f 50 37 00 	add.b	#55,	r15	;#0x0037
    fa56:	b0 12 a2 f9 	call	#0xf9a2	
}
    fa5a:	3a 41       	pop	r10		
    fa5c:	3b 41       	pop	r11		
    fa5e:	30 41       	ret			
    fa60:	52 44 49 44 	mov.b	17481(r4),r2	;0x4449(r4)
    fa64:	32 3a       	jl	$-922    	;abs 0xf6ca
    fa66:	00 0a       	.word	0x0a00;	????	
    fa68:	00 44       	br	r4		
    fa6a:	69 73       	subc.b	#2,	r9	;r3 As==10
    fa6c:	70 6c       	addc.b	@r12+,	r0	
    fa6e:	61 79       	subc.b	@r9,	r1	
    fa70:	20 70       	subc	@r0,	r0	
    fa72:	6f 77       	subc.b	@r7,	r15	
    fa74:	65 72       	subc.b	#4,	r5	;r2 As==10
    fa76:	20 6d       	addc	@r13,	r0	
    fa78:	6f 64       	addc.b	@r4,	r15	
    fa7a:	65 3a       	jl	$-820    	;abs 0xf746
    fa7c:	20 00       	.word	0x0020;	????	
    fa7e:	09 42       	mov	r2,	r9	
    fa80:	6f 6f       	addc.b	@r15,	r15	
    fa82:	73 74       	.word	0x7473;	????	Illegal as 2-op instr
    fa84:	65 72       	subc.b	#4,	r5	;r2 As==10
    fa86:	20 4f       	br	@r15		
    fa88:	4b 0a       	.word	0x0a4b;	????	
    fa8a:	00 09       	.word	0x0900;	????	
    fa8c:	42 6f       	addc.b	r15,	r2	
    fa8e:	6f 73       	subc.b	#2,	r15	;r3 As==10
    fa90:	74 65       	addc.b	@r5+,	r4	
    fa92:	72 20       	jnz	$+230    	;abs 0xfb78
    fa94:	45 72       	subc.b	r2,	r5	
    fa96:	72 6f       	addc.b	@r15+,	r2	
    fa98:	72 0a       	.word	0x0a72;	????	
    fa9a:	00 09       	.word	0x0900;	????	
    fa9c:	53 6c       	.word	0x6c53;	????	Illegal as 2-op instr
    fa9e:	65 65       	addc.b	@r5,	r5	
    faa0:	70 20       	jnz	$+226    	;abs 0xfb82
    faa2:	6f 75       	subc.b	@r5,	r15	
    faa4:	74 20       	jnz	$+234    	;abs 0xfb8e
    faa6:	6d 6f       	addc.b	@r15,	r13	
    faa8:	64 65       	addc.b	@r5,	r4	
    faaa:	0a 00       	.word	0x000a;	????	
    faac:	09 53       	add	#0,	r9	;r3 As==00
    faae:	6c 65       	addc.b	@r5,	r12	
    fab0:	65 70       	subc.b	@r0,	r5	
    fab2:	20 69       	addc	@r9,	r0	
    fab4:	6e 20       	jnz	$+222    	;abs 0xfb92
    fab6:	6d 6f       	addc.b	@r15,	r13	
    fab8:	64 65       	addc.b	@r5,	r4	
    faba:	0a 00       	.word	0x000a;	????	
    fabc:	09 44       	mov	r4,	r9	
    fabe:	69 73       	subc.b	#2,	r9	;r3 As==10
    fac0:	70 6c       	addc.b	@r12+,	r0	
    fac2:	61 79       	subc.b	@r9,	r1	
    fac4:	20 6d       	addc	@r13,	r0	
    fac6:	6f 64       	addc.b	@r4,	r15	
    fac8:	65 20       	jnz	$+204    	;abs 0xfb94
    faca:	6e 6f       	addc.b	@r15,	r14	
    facc:	72 6d       	addc.b	@r13+,	r2	
    face:	61 6c       	addc.b	@r12,	r1	
    fad0:	0a 00       	.word	0x000a;	????	
    fad2:	09 44       	mov	r4,	r9	
    fad4:	69 73       	subc.b	#2,	r9	;r3 As==10
    fad6:	70 6c       	addc.b	@r12+,	r0	
    fad8:	61 79       	subc.b	@r9,	r1	
    fada:	20 6d       	addc	@r13,	r0	
    fadc:	6f 64       	addc.b	@r4,	r15	
    fade:	65 20       	jnz	$+204    	;abs 0xfbaa
    fae0:	6e 6f       	addc.b	@r15,	r14	
    fae2:	74 20       	jnz	$+234    	;abs 0xfbcc
    fae4:	6e 6f       	addc.b	@r15,	r14	
    fae6:	72 6d       	addc.b	@r13+,	r2	
    fae8:	61 6c       	addc.b	@r12,	r1	
    faea:	0a 00       	.word	0x000a;	????	
    faec:	09 44       	mov	r4,	r9	
    faee:	69 73       	subc.b	#2,	r9	;r3 As==10
    faf0:	70 6c       	addc.b	@r12+,	r0	
    faf2:	61 79       	subc.b	@r9,	r1	
    faf4:	20 69       	addc	@r9,	r0	
    faf6:	73 20       	jnz	$+232    	;abs 0xfbde
    faf8:	6f 6e       	addc.b	@r14,	r15	
    fafa:	0a 00       	.word	0x000a;	????	
    fafc:	09 44       	mov	r4,	r9	
    fafe:	69 73       	subc.b	#2,	r9	;r3 As==10
    fb00:	70 6c       	addc.b	@r12+,	r0	
    fb02:	61 79       	subc.b	@r9,	r1	
    fb04:	20 69       	addc	@r9,	r0	
    fb06:	73 20       	jnz	$+232    	;abs 0xfbee
    fb08:	6f 66       	addc.b	@r6,	r15	
    fb0a:	66 0a       	.word	0x0a66;	????	
    fb0c:	00 44       	br	r4		
    fb0e:	69 73       	subc.b	#2,	r9	;r3 As==10
    fb10:	70 6c       	addc.b	@r12+,	r0	
    fb12:	61 79       	subc.b	@r9,	r1	
    fb14:	20 70       	subc	@r0,	r0	
    fb16:	69 78       	subc.b	@r8,	r9	
    fb18:	65 6c       	addc.b	@r12,	r5	
    fb1a:	20 66       	addc	@r6,	r0	
    fb1c:	6f 72       	subc.b	#4,	r15	;r2 As==10
    fb1e:	6d 61       	addc.b	@r1,	r13	
    fb20:	74 3a       	jl	$-790    	;abs 0xf80a
    fb22:	20 00       	.word	0x0020;	????	
    fb24:	09 32       	jn	$-1004   	;abs 0xf738
    fb26:	34 20       	jnz	$+106    	;abs 0xfb90
    fb28:	62 69       	addc.b	@r9,	r2	
    fb2a:	74 20       	jnz	$+234    	;abs 0xfc14
    fb2c:	70 69       	addc.b	@r9+,	r0	
    fb2e:	78 65       	addc.b	@r5+,	r8	
    fb30:	6c 20       	jnz	$+218    	;abs 0xfc0a
    fb32:	66 6f       	addc.b	@r15,	r6	
    fb34:	72 6d       	addc.b	@r13+,	r2	
    fb36:	61 74       	subc.b	@r4,	r1	
    fb38:	0a 00       	.word	0x000a;	????	
    fb3a:	09 31       	jn	$+532    	;abs 0xfd4e
    fb3c:	36 20       	jnz	$+110    	;abs 0xfbaa
    fb3e:	62 69       	addc.b	@r9,	r2	
    fb40:	74 20       	jnz	$+234    	;abs 0xfc2a
    fb42:	70 69       	addc.b	@r9+,	r0	
    fb44:	78 65       	addc.b	@r5+,	r8	
    fb46:	6c 20       	jnz	$+218    	;abs 0xfc20
    fb48:	66 6f       	addc.b	@r15,	r6	
    fb4a:	72 6d       	addc.b	@r13+,	r2	
    fb4c:	61 74       	subc.b	@r4,	r1	
    fb4e:	0a 00       	.word	0x000a;	????	
    fb50:	09 31       	jn	$+532    	;abs 0xfd64
    fb52:	38 20       	jnz	$+114    	;abs 0xfbc4
    fb54:	62 69       	addc.b	@r9,	r2	
    fb56:	74 20       	jnz	$+234    	;abs 0xfc40
    fb58:	70 69       	addc.b	@r9+,	r0	
    fb5a:	78 65       	addc.b	@r5+,	r8	
    fb5c:	6c 20       	jnz	$+218    	;abs 0xfc36
    fb5e:	66 6f       	addc.b	@r15,	r6	
    fb60:	72 6d       	addc.b	@r13+,	r2	
    fb62:	61 74       	subc.b	@r4,	r1	
    fb64:	0a 00       	.word	0x000a;	????	
    fb66:	09 55       	add	r5,	r9	
    fb68:	6e 6b       	addc.b	@r11,	r14	
    fb6a:	6e 6f       	addc.b	@r15,	r14	
    fb6c:	77 6e       	addc.b	@r14+,	r7	
    fb6e:	20 70       	subc	@r0,	r0	
    fb70:	69 78       	subc.b	@r8,	r9	
    fb72:	65 6c       	addc.b	@r12,	r5	
    fb74:	20 66       	addc	@r6,	r0	
    fb76:	6f 72       	subc.b	#4,	r15	;r2 As==10
    fb78:	6d 61       	addc.b	@r1,	r13	
    fb7a:	74 0a       	.word	0x0a74;	????	
    fb7c:	00 44       	br	r4		
    fb7e:	69 73       	subc.b	#2,	r9	;r3 As==10
    fb80:	70 6c       	addc.b	@r12+,	r0	
    fb82:	61 79       	subc.b	@r9,	r1	
    fb84:	20 69       	addc	@r9,	r0	
    fb86:	6d 61       	addc.b	@r1,	r13	
    fb88:	67 65       	addc.b	@r5,	r7	
    fb8a:	20 6d       	addc	@r13,	r0	
    fb8c:	6f 64       	addc.b	@r4,	r15	
    fb8e:	65 3a       	jl	$-820    	;abs 0xf85a
    fb90:	20 00       	.word	0x0020;	????	
    fb92:	44 69       	addc.b	r9,	r4	
    fb94:	73 70       	.word	0x7073;	????	Illegal as 2-op instr
    fb96:	6c 61       	addc.b	@r1,	r12	
    fb98:	79 20       	jnz	$+244    	;abs 0xfc8c
    fb9a:	73 69       	.word	0x6973;	????	Illegal as 2-op instr
    fb9c:	67 6e       	addc.b	@r14,	r7	
    fb9e:	61 6c       	addc.b	@r12,	r1	
    fba0:	20 6d       	addc	@r13,	r0	
    fba2:	6f 64       	addc.b	@r4,	r15	
    fba4:	65 3a       	jl	$-820    	;abs 0xf870
    fba6:	20 00       	.word	0x0020;	????	
    fba8:	44 69       	addc.b	r9,	r4	
    fbaa:	73 70       	.word	0x7073;	????	Illegal as 2-op instr
    fbac:	6c 61       	addc.b	@r1,	r12	
    fbae:	79 20       	jnz	$+244    	;abs 0xfca2
    fbb0:	73 65       	.word	0x6573;	????	Illegal as 2-op instr
    fbb2:	6c 66       	addc.b	@r6,	r12	
    fbb4:	20 64       	addc	@r4,	r0	
    fbb6:	69 61       	addc.b	@r1,	r9	
    fbb8:	67 6e       	addc.b	@r14,	r7	
    fbba:	6f 73       	subc.b	#2,	r15	;r3 As==10
    fbbc:	74 69       	addc.b	@r9+,	r4	
    fbbe:	63 3a       	jl	$-824    	;abs 0xf886
    fbc0:	20 00       	.word	0x0020;	????	
    fbc2:	09 4f       	mov	r15,	r9	
    fbc4:	54 50 20 6d 	add.b	0x6d20,	r4	;PC rel. 0x168e8
    fbc8:	61 74       	subc.b	@r4,	r1	
    fbca:	63 68       	.word	0x6863;	????	Illegal as 2-op instr
    fbcc:	0a 00       	.word	0x000a;	????	
    fbce:	09 4f       	mov	r15,	r9	
    fbd0:	54 50 20 6d 	add.b	0x6d20,	r4	;PC rel. 0x168f4
    fbd4:	69 73       	subc.b	#2,	r9	;r3 As==10
    fbd6:	6d 61       	addc.b	@r1,	r13	
    fbd8:	74 63       	addc.b	#-1,	r4	;r3 As==11
    fbda:	68 0a       	.word	0x0a68;	????	
    fbdc:	00 09       	.word	0x0900;	????	
    fbde:	42 6f       	addc.b	r15,	r2	
    fbe0:	6f 73       	subc.b	#2,	r15	;r3 As==10
    fbe2:	74 65       	addc.b	@r5+,	r4	
    fbe4:	72 20       	jnz	$+230    	;abs 0xfcca
    fbe6:	6c 65       	addc.b	@r5,	r12	
    fbe8:	76 65       	addc.b	@r5+,	r6	
    fbea:	6c 20       	jnz	$+218    	;abs 0xfcc4
    fbec:	61 6e       	addc.b	@r14,	r1	
    fbee:	64 20       	jnz	$+202    	;abs 0xfcb8
    fbf0:	74 69       	addc.b	@r9+,	r4	
    fbf2:	6d 69       	addc.b	@r9,	r13	
    fbf4:	6e 67       	addc.b	@r7,	r14	
    fbf6:	73 20       	jnz	$+232    	;abs 0xfcde
    fbf8:	4f 4b       	mov.b	r11,	r15	
    fbfa:	0a 00       	.word	0x000a;	????	
    fbfc:	09 42       	mov	r2,	r9	
    fbfe:	6f 6f       	addc.b	@r15,	r15	
    fc00:	73 74       	.word	0x7473;	????	Illegal as 2-op instr
    fc02:	65 72       	subc.b	#4,	r5	;r2 As==10
    fc04:	20 73       	subc	#2,	r0	;r3 As==10
    fc06:	68 69       	addc.b	@r9,	r8	
    fc08:	74 20       	jnz	$+234    	;abs 0xfcf2
    fc0a:	65 72       	subc.b	#4,	r5	;r2 As==10
    fc0c:	72 6f       	addc.b	@r15+,	r2	
    fc0e:	72 0a       	.word	0x0a72;	????	
    fc10:	00 52       	add	r2,	r0	
    fc12:	44 52       	add.b	r2,	r4	
    fc14:	45 44       	mov.b	r4,	r5	
    fc16:	3a 20       	jnz	$+118    	;abs 0xfc8c
    fc18:	00 52       	add	r2,	r0	
    fc1a:	44 42       	mov.b	r2,	r4	
    fc1c:	4c 55       	add.b	r5,	r12	
    fc1e:	45 3a       	jl	$-884    	;abs 0xf8aa
    fc20:	20 00       	.word	0x0020;	????	
    fc22:	52 44 47 52 	mov.b	21063(r4),r2	;0x5247(r4)
    fc26:	45 45       	mov.b	r5,	r5	
    fc28:	4e 3a       	jl	$-866    	;abs 0xf8c6
    fc2a:	20 00       	.word	0x0020;	????	

0000fc2c <LcdTest>:
	LcdWrite(LCD_C, 0x28, 1); // Sleep out command
	delay_ms(110);
	LcdWrite(LCD_C, 0x10, 1); // Display on command
}

void LcdTest(void){
    fc2c:	0b 12       	push	r11		
	char data;

	P1OUT &= ~PIN_NCS; // Select Chip Enable low
    fc2e:	f2 f0 ef ff 	and.b	#-17,	&0x0021	;#0xffef
    fc32:	21 00 
	LcdWrite(LCD_C, 0xB9, 0); // Set extended commands
    fc34:	4d 43       	clr.b	r13		
    fc36:	7e 40 b9 ff 	mov.b	#-71,	r14	;#0xffb9
    fc3a:	4f 4d       	mov.b	r13,	r15	
    fc3c:	b0 12 d2 f8 	call	#0xf8d2	
	LcdWrite(LCD_D, 0xFF, 0);
    fc40:	4d 43       	clr.b	r13		
    fc42:	7e 43       	mov.b	#-1,	r14	;r3 As==11
    fc44:	5f 43       	mov.b	#1,	r15	;r3 As==01
    fc46:	b0 12 d2 f8 	call	#0xf8d2	
	LcdWrite(LCD_D, 0x83, 0);
    fc4a:	4d 43       	clr.b	r13		
    fc4c:	7e 40 83 ff 	mov.b	#-125,	r14	;#0xff83
    fc50:	5f 43       	mov.b	#1,	r15	;r3 As==01
    fc52:	b0 12 d2 f8 	call	#0xf8d2	
	LcdWrite(LCD_D, 0x63, 0);
    fc56:	4d 43       	clr.b	r13		
    fc58:	7e 40 63 00 	mov.b	#99,	r14	;#0x0063
    fc5c:	5f 43       	mov.b	#1,	r15	;r3 As==01
    fc5e:	b0 12 d2 f8 	call	#0xf8d2	
	P1OUT |= PIN_NCS; // Select Chip Enable High
    fc62:	f2 d0 10 00 	bis.b	#16,	&0x0021	;#0x0010
    fc66:	21 00 

	send("RDID2:");
    fc68:	3f 40 60 fa 	mov	#-1440,	r15	;#0xfa60
    fc6c:	b0 12 dc f9 	call	#0xf9dc	
	P1OUT &= ~PIN_NCS; 
    fc70:	f2 f0 ef ff 	and.b	#-17,	&0x0021	;#0xffef
    fc74:	21 00 
	LcdWrite(LCD_C, 0xDB, 0); // Read the version ID, should be 0x81
    fc76:	4d 43       	clr.b	r13		
    fc78:	7e 40 db ff 	mov.b	#-37,	r14	;#0xffdb
    fc7c:	4f 4d       	mov.b	r13,	r15	
    fc7e:	b0 12 d2 f8 	call	#0xf8d2	
	data = LcdRead(1);
    fc82:	5f 43       	mov.b	#1,	r15	;r3 As==01
    fc84:	b0 12 42 f9 	call	#0xf942	
	hex(data);
    fc88:	b0 12 f6 f9 	call	#0xf9f6	
	send("\n");
    fc8c:	3f 40 67 fa 	mov	#-1433,	r15	;#0xfa67
    fc90:	b0 12 dc f9 	call	#0xf9dc	

	P1OUT &= ~PIN_NCS; 
    fc94:	f2 f0 ef ff 	and.b	#-17,	&0x0021	;#0xffef
    fc98:	21 00 
	LcdWrite(LCD_C, 0x3A, 0); // Interface pixel format
    fc9a:	4d 43       	clr.b	r13		
    fc9c:	7e 40 3a 00 	mov.b	#58,	r14	;#0x003a
    fca0:	4f 4d       	mov.b	r13,	r15	
    fca2:	b0 12 d2 f8 	call	#0xf8d2	
	LcdWrite(LCD_D, 0x50, 0); // 16 bit
    fca6:	4d 43       	clr.b	r13		
    fca8:	7e 40 50 00 	mov.b	#80,	r14	;#0x0050
    fcac:	5f 43       	mov.b	#1,	r15	;r3 As==01
    fcae:	b0 12 d2 f8 	call	#0xf8d2	
	P1OUT |= PIN_NCS; 
    fcb2:	f2 d0 10 00 	bis.b	#16,	&0x0021	;#0x0010
    fcb6:	21 00 


	send("Display power mode: ");
    fcb8:	3f 40 69 fa 	mov	#-1431,	r15	;#0xfa69
    fcbc:	b0 12 dc f9 	call	#0xf9dc	
	P1OUT &= ~PIN_NCS; // Select Chip Enable low
    fcc0:	f2 f0 ef ff 	and.b	#-17,	&0x0021	;#0xffef
    fcc4:	21 00 
	LcdWrite(LCD_C, 0x0A, 0);
    fcc6:	4d 43       	clr.b	r13		
    fcc8:	7e 40 0a 00 	mov.b	#10,	r14	;#0x000a
    fccc:	4f 4d       	mov.b	r13,	r15	
    fcce:	b0 12 d2 f8 	call	#0xf8d2	
	data = LcdRead(1);
    fcd2:	5f 43       	mov.b	#1,	r15	;r3 As==01
    fcd4:	b0 12 42 f9 	call	#0xf942	
    fcd8:	4b 4f       	mov.b	r15,	r11	
	hex(data);
    fcda:	b0 12 f6 f9 	call	#0xf9f6	
	send("\n");
    fcde:	3f 40 67 fa 	mov	#-1433,	r15	;#0xfa67
    fce2:	b0 12 dc f9 	call	#0xf9dc	
	if(data & (1<<7))
    fce6:	4b 93       	tst.b	r11		
    fce8:	05 34       	jge	$+12     	;abs 0xfcf4
		send("\tBooster OK\n");
    fcea:	3f 40 7e fa 	mov	#-1410,	r15	;#0xfa7e
    fcee:	b0 12 dc f9 	call	#0xf9dc	
    fcf2:	04 3c       	jmp	$+10     	;abs 0xfcfc
	else
		send("\tBooster Error\n");
    fcf4:	3f 40 8b fa 	mov	#-1397,	r15	;#0xfa8b
    fcf8:	b0 12 dc f9 	call	#0xf9dc	
	if(data & (1<<4))
    fcfc:	8b 11       	sxt	r11		
    fcfe:	0f 4b       	mov	r11,	r15	
    fd00:	3f f0 10 00 	and	#16,	r15	;#0x0010
    fd04:	05 24       	jz	$+12     	;abs 0xfd10
		send("\tSleep out mode\n");
    fd06:	3f 40 9b fa 	mov	#-1381,	r15	;#0xfa9b
    fd0a:	b0 12 dc f9 	call	#0xf9dc	
    fd0e:	04 3c       	jmp	$+10     	;abs 0xfd18
	else
		send("\tSleep in mode\n");
    fd10:	3f 40 ac fa 	mov	#-1364,	r15	;#0xfaac
    fd14:	b0 12 dc f9 	call	#0xf9dc	
	if(data & (1<<3))
    fd18:	0f 4b       	mov	r11,	r15	
    fd1a:	3f f2       	and	#8,	r15	;r2 As==11
    fd1c:	05 24       	jz	$+12     	;abs 0xfd28
		send("\tDisplay mode normal\n");
    fd1e:	3f 40 bc fa 	mov	#-1348,	r15	;#0xfabc
    fd22:	b0 12 dc f9 	call	#0xf9dc	
    fd26:	04 3c       	jmp	$+10     	;abs 0xfd30
	else
		send("\tDisplay mode not normal\n");
    fd28:	3f 40 d2 fa 	mov	#-1326,	r15	;#0xfad2
    fd2c:	b0 12 dc f9 	call	#0xf9dc	
	if(data & (1<<2))
    fd30:	2b f2       	and	#4,	r11	;r2 As==10
    fd32:	05 24       	jz	$+12     	;abs 0xfd3e
		send("\tDisplay is on\n");
    fd34:	3f 40 ec fa 	mov	#-1300,	r15	;#0xfaec
    fd38:	b0 12 dc f9 	call	#0xf9dc	
    fd3c:	04 3c       	jmp	$+10     	;abs 0xfd46
	else
		send("\tDisplay is off\n");
    fd3e:	3f 40 fc fa 	mov	#-1284,	r15	;#0xfafc
    fd42:	b0 12 dc f9 	call	#0xf9dc	

	send("Display pixel format: ");
    fd46:	3f 40 0d fb 	mov	#-1267,	r15	;#0xfb0d
    fd4a:	b0 12 dc f9 	call	#0xf9dc	
	P1OUT &= ~PIN_NCS; 
    fd4e:	f2 f0 ef ff 	and.b	#-17,	&0x0021	;#0xffef
    fd52:	21 00 
	LcdWrite(LCD_C, 0x0C, 0);
    fd54:	4d 43       	clr.b	r13		
    fd56:	7e 40 0c 00 	mov.b	#12,	r14	;#0x000c
    fd5a:	4f 4d       	mov.b	r13,	r15	
    fd5c:	b0 12 d2 f8 	call	#0xf8d2	
	data = LcdRead(1);
    fd60:	5f 43       	mov.b	#1,	r15	;r3 As==01
    fd62:	b0 12 42 f9 	call	#0xf942	
    fd66:	4b 4f       	mov.b	r15,	r11	
	hex(data);
    fd68:	b0 12 f6 f9 	call	#0xf9f6	
	send("\n");
    fd6c:	3f 40 67 fa 	mov	#-1433,	r15	;#0xfa67
    fd70:	b0 12 dc f9 	call	#0xf9dc	
	if(data == 0x70)
    fd74:	7b 90 70 00 	cmp.b	#112,	r11	;#0x0070
    fd78:	05 20       	jnz	$+12     	;abs 0xfd84
		send("\t24 bit pixel format\n");
    fd7a:	3f 40 24 fb 	mov	#-1244,	r15	;#0xfb24
    fd7e:	b0 12 dc f9 	call	#0xf9dc	
    fd82:	14 3c       	jmp	$+42     	;abs 0xfdac
	else if(data == 0x50)
    fd84:	7b 90 50 00 	cmp.b	#80,	r11	;#0x0050
    fd88:	05 20       	jnz	$+12     	;abs 0xfd94
		send("\t16 bit pixel format\n");
    fd8a:	3f 40 3a fb 	mov	#-1222,	r15	;#0xfb3a
    fd8e:	b0 12 dc f9 	call	#0xf9dc	
    fd92:	0c 3c       	jmp	$+26     	;abs 0xfdac
	else if(data == 0x60)
    fd94:	7b 90 60 00 	cmp.b	#96,	r11	;#0x0060
    fd98:	05 20       	jnz	$+12     	;abs 0xfda4
		send("\t18 bit pixel format\n");
    fd9a:	3f 40 50 fb 	mov	#-1200,	r15	;#0xfb50
    fd9e:	b0 12 dc f9 	call	#0xf9dc	
    fda2:	04 3c       	jmp	$+10     	;abs 0xfdac
	else
		send("\tUnknown pixel format\n");
    fda4:	3f 40 66 fb 	mov	#-1178,	r15	;#0xfb66
    fda8:	b0 12 dc f9 	call	#0xf9dc	

	send("Display image mode: ");
    fdac:	3f 40 7d fb 	mov	#-1155,	r15	;#0xfb7d
    fdb0:	b0 12 dc f9 	call	#0xf9dc	
	P1OUT &= ~PIN_NCS; 
    fdb4:	f2 f0 ef ff 	and.b	#-17,	&0x0021	;#0xffef
    fdb8:	21 00 
	LcdWrite(LCD_C, 0x0D, 0);
    fdba:	4d 43       	clr.b	r13		
    fdbc:	7e 40 0d 00 	mov.b	#13,	r14	;#0x000d
    fdc0:	4f 4d       	mov.b	r13,	r15	
    fdc2:	b0 12 d2 f8 	call	#0xf8d2	
	data = LcdRead(1);
    fdc6:	5f 43       	mov.b	#1,	r15	;r3 As==01
    fdc8:	b0 12 42 f9 	call	#0xf942	
	hex(data);
    fdcc:	b0 12 f6 f9 	call	#0xf9f6	
	send("\n");
    fdd0:	3f 40 67 fa 	mov	#-1433,	r15	;#0xfa67
    fdd4:	b0 12 dc f9 	call	#0xf9dc	

	send("Display signal mode: ");
    fdd8:	3f 40 92 fb 	mov	#-1134,	r15	;#0xfb92
    fddc:	b0 12 dc f9 	call	#0xf9dc	
	P1OUT &= ~PIN_NCS; 
    fde0:	f2 f0 ef ff 	and.b	#-17,	&0x0021	;#0xffef
    fde4:	21 00 
	LcdWrite(LCD_C, 0x0E, 0);
    fde6:	4d 43       	clr.b	r13		
    fde8:	7e 40 0e 00 	mov.b	#14,	r14	;#0x000e
    fdec:	4f 4d       	mov.b	r13,	r15	
    fdee:	b0 12 d2 f8 	call	#0xf8d2	
	data = LcdRead(1);
    fdf2:	5f 43       	mov.b	#1,	r15	;r3 As==01
    fdf4:	b0 12 42 f9 	call	#0xf942	
	hex(data);
    fdf8:	b0 12 f6 f9 	call	#0xf9f6	
	send("\n");
    fdfc:	3f 40 67 fa 	mov	#-1433,	r15	;#0xfa67
    fe00:	b0 12 dc f9 	call	#0xf9dc	

	send("Display self diagnostic: ");
    fe04:	3f 40 a8 fb 	mov	#-1112,	r15	;#0xfba8
    fe08:	b0 12 dc f9 	call	#0xf9dc	
	P1OUT &= ~PIN_NCS; 
    fe0c:	f2 f0 ef ff 	and.b	#-17,	&0x0021	;#0xffef
    fe10:	21 00 
	LcdWrite(LCD_C, 0x0F, 0);
    fe12:	4d 43       	clr.b	r13		
    fe14:	7e 40 0f 00 	mov.b	#15,	r14	;#0x000f
    fe18:	4f 4d       	mov.b	r13,	r15	
    fe1a:	b0 12 d2 f8 	call	#0xf8d2	
	data = LcdRead(1);
    fe1e:	5f 43       	mov.b	#1,	r15	;r3 As==01
    fe20:	b0 12 42 f9 	call	#0xf942	
    fe24:	4b 4f       	mov.b	r15,	r11	
	hex(data);
    fe26:	b0 12 f6 f9 	call	#0xf9f6	
	send("\n");
    fe2a:	3f 40 67 fa 	mov	#-1433,	r15	;#0xfa67
    fe2e:	b0 12 dc f9 	call	#0xf9dc	
	if(data & (1<<7))
    fe32:	4b 93       	tst.b	r11		
    fe34:	05 34       	jge	$+12     	;abs 0xfe40
		send("\tOTP match\n");
    fe36:	3f 40 c2 fb 	mov	#-1086,	r15	;#0xfbc2
    fe3a:	b0 12 dc f9 	call	#0xf9dc	
    fe3e:	04 3c       	jmp	$+10     	;abs 0xfe48
	else
		send("\tOTP mismatch\n");
    fe40:	3f 40 ce fb 	mov	#-1074,	r15	;#0xfbce
    fe44:	b0 12 dc f9 	call	#0xf9dc	
	if(data & (1<<6))
    fe48:	4f 4b       	mov.b	r11,	r15	
    fe4a:	8f 11       	sxt	r15		
    fe4c:	3f f0 40 00 	and	#64,	r15	;#0x0040
    fe50:	05 24       	jz	$+12     	;abs 0xfe5c
		send("\tBooster level and timings OK\n");
    fe52:	3f 40 dd fb 	mov	#-1059,	r15	;#0xfbdd
    fe56:	b0 12 dc f9 	call	#0xf9dc	
    fe5a:	04 3c       	jmp	$+10     	;abs 0xfe64
	else
		send("\tBooster shit error\n");
    fe5c:	3f 40 fc fb 	mov	#-1028,	r15	;#0xfbfc
    fe60:	b0 12 dc f9 	call	#0xf9dc	
	P1OUT |= PIN_NCS; 
	*/



	send("RDRED: ");
    fe64:	3f 40 11 fc 	mov	#-1007,	r15	;#0xfc11
    fe68:	b0 12 dc f9 	call	#0xf9dc	
	P1OUT &= ~PIN_NCS; 
    fe6c:	f2 f0 ef ff 	and.b	#-17,	&0x0021	;#0xffef
    fe70:	21 00 
	LcdWrite(LCD_C, CMD_RDRED, 0);
    fe72:	4d 43       	clr.b	r13		
    fe74:	7e 40 06 00 	mov.b	#6,	r14	;#0x0006
    fe78:	4f 4d       	mov.b	r13,	r15	
    fe7a:	b0 12 d2 f8 	call	#0xf8d2	
	data = LcdRead(1);
    fe7e:	5f 43       	mov.b	#1,	r15	;r3 As==01
    fe80:	b0 12 42 f9 	call	#0xf942	
	hex(data);
    fe84:	b0 12 f6 f9 	call	#0xf9f6	
	send("\n");
    fe88:	3f 40 67 fa 	mov	#-1433,	r15	;#0xfa67
    fe8c:	b0 12 dc f9 	call	#0xf9dc	
	send("RDBLUE: ");
    fe90:	3f 40 19 fc 	mov	#-999,	r15	;#0xfc19
    fe94:	b0 12 dc f9 	call	#0xf9dc	
	P1OUT &= ~PIN_NCS; 
    fe98:	f2 f0 ef ff 	and.b	#-17,	&0x0021	;#0xffef
    fe9c:	21 00 
	LcdWrite(LCD_C, CMD_RDBLUE, 0);
    fe9e:	4d 43       	clr.b	r13		
    fea0:	7e 42       	mov.b	#8,	r14	;r2 As==11
    fea2:	4f 4d       	mov.b	r13,	r15	
    fea4:	b0 12 d2 f8 	call	#0xf8d2	
	data = LcdRead(1);
    fea8:	5f 43       	mov.b	#1,	r15	;r3 As==01
    feaa:	b0 12 42 f9 	call	#0xf942	
	hex(data);
    feae:	b0 12 f6 f9 	call	#0xf9f6	
	send("\n");
    feb2:	3f 40 67 fa 	mov	#-1433,	r15	;#0xfa67
    feb6:	b0 12 dc f9 	call	#0xf9dc	
	send("RDGREEN: ");
    feba:	3f 40 22 fc 	mov	#-990,	r15	;#0xfc22
    febe:	b0 12 dc f9 	call	#0xf9dc	
	P1OUT &= ~PIN_NCS; 
    fec2:	f2 f0 ef ff 	and.b	#-17,	&0x0021	;#0xffef
    fec6:	21 00 
	LcdWrite(LCD_C, CMD_RDGREEN, 0);
    fec8:	4d 43       	clr.b	r13		
    feca:	7e 40 07 00 	mov.b	#7,	r14	;#0x0007
    fece:	4f 4d       	mov.b	r13,	r15	
    fed0:	b0 12 d2 f8 	call	#0xf8d2	
	data = LcdRead(1);
    fed4:	5f 43       	mov.b	#1,	r15	;r3 As==01
    fed6:	b0 12 42 f9 	call	#0xf942	
	hex(data);
    feda:	b0 12 f6 f9 	call	#0xf9f6	
	send("\n");
    fede:	3f 40 67 fa 	mov	#-1433,	r15	;#0xfa67
    fee2:	b0 12 dc f9 	call	#0xf9dc	
}
    fee6:	3b 41       	pop	r11		
    fee8:	30 41       	ret			

0000feea <ta1_isr>:
	Transmit('0');
	Transmit('x');
	Transmit( TO_HEX(((x & 0x00F0) >> 4)) );
	Transmit( TO_HEX(((x & 0x000F) >> 0)) );
}
interrupt(TIMERA0_VECTOR) ta1_isr (void){
    feea:	0f 12       	push	r15		
    feec:	0e 12       	push	r14		
    feee:	0d 12       	push	r13		
	CCR0 += Bit_time; 					// Add Offset to CCR0
    fef0:	b2 50 68 00 	add	#104,	&0x0172	;#0x0068
    fef4:	72 01 
	if ( BitCnt == 0){ 					// If all bits TXed
    fef6:	5f 42 00 02 	mov.b	&0x0200,r15	
    fefa:	4f 93       	tst.b	r15		
    fefc:	07 20       	jnz	$+16     	;abs 0xff0c
		TACTL = TASSEL_2; 				// SMCLK, timer off (for power consumption)
    fefe:	b2 40 00 02 	mov	#512,	&0x0160	;#0x0200
    ff02:	60 01 
		CCTL0 &= ~ CCIE ; 				// Disable interrupt
    ff04:	b2 f0 ef ff 	and	#-17,	&0x0162	;#0xffef
    ff08:	62 01 
    ff0a:	12 3c       	jmp	$+38     	;abs 0xff30
	}
	else{
		CCTL0 |= OUTMOD2; // Set TX bit to 0
    ff0c:	b2 d0 80 00 	bis	#128,	&0x0162	;#0x0080
    ff10:	62 01 
		if (TXByte & 0x01)
    ff12:	1e 42 02 02 	mov	&0x0202,r14	
    ff16:	0d 4e       	mov	r14,	r13	
    ff18:	1d f3       	and	#1,	r13	;r3 As==01
    ff1a:	03 24       	jz	$+8      	;abs 0xff22
			CCTL0 &= ~ OUTMOD2; // If it should be 1, set it to 1
    ff1c:	b2 f0 7f ff 	and	#-129,	&0x0162	;#0xff7f
    ff20:	62 01 
		TXByte = TXByte >> 1;
    ff22:	12 c3       	clrc			
    ff24:	0e 10       	rrc	r14		
    ff26:	82 4e 02 02 	mov	r14,	&0x0202	
		BitCnt --;
    ff2a:	7f 53       	add.b	#-1,	r15	;r3 As==11
    ff2c:	c2 4f 00 02 	mov.b	r15,	&0x0200	
	}
}
    ff30:	3d 41       	pop	r13		
    ff32:	3e 41       	pop	r14		
    ff34:	3f 41       	pop	r15		
    ff36:	00 13       	reti			

0000ff38 <delay_ms>:
	}while(n--);
}


static void __inline__ _brief_pause(register unsigned int n){
    __asm__ __volatile__ (
    ff38:	3d 40 4d 01 	mov	#333,	r13	;#0x014d
    ff3c:	0e 4d       	mov	r13,	r14	
    ff3e:	1e 83       	dec	r14		
    ff40:	fe 23       	jnz	$-2      	;abs 0xff3e

// Delay n milliseconds
void delay_ms(unsigned int n){
	do{
		_brief_pause(333);
	}while(n--);
    ff42:	3f 53       	add	#-1,	r15	;r3 As==11
    ff44:	3f 93       	cmp	#-1,	r15	;r3 As==11
    ff46:	fa 23       	jnz	$-10     	;abs 0xff3c
}
    ff48:	30 41       	ret			

0000ff4a <LcdUnInit>:
	delay_ms(110);
	LcdWrite(LCD_C, 0x29, 1); // Display on command
}

void LcdUnInit(void){
	LcdWrite(LCD_C, 0x28, 1); // Sleep out command
    ff4a:	5d 43       	mov.b	#1,	r13	;r3 As==01
    ff4c:	7e 40 28 00 	mov.b	#40,	r14	;#0x0028
    ff50:	4f 43       	clr.b	r15		
    ff52:	b0 12 d2 f8 	call	#0xf8d2	
	delay_ms(110);
    ff56:	3f 40 6e 00 	mov	#110,	r15	;#0x006e
    ff5a:	b0 12 38 ff 	call	#0xff38	
	LcdWrite(LCD_C, 0x10, 1); // Display on command
    ff5e:	5d 43       	mov.b	#1,	r13	;r3 As==01
    ff60:	7e 40 10 00 	mov.b	#16,	r14	;#0x0010
    ff64:	4f 43       	clr.b	r15		
    ff66:	b0 12 d2 f8 	call	#0xf8d2	
}
    ff6a:	30 41       	ret			

0000ff6c <LcdInit>:
void send(char* str);
void hex(char x);
static void __inline__ _brief_pause(register unsigned int n);

void LcdInit(void){
	LcdWrite(LCD_C, 0x11, 1); // Sleep out command
    ff6c:	5d 43       	mov.b	#1,	r13	;r3 As==01
    ff6e:	7e 40 11 00 	mov.b	#17,	r14	;#0x0011
    ff72:	4f 43       	clr.b	r15		
    ff74:	b0 12 d2 f8 	call	#0xf8d2	
	delay_ms(110);
    ff78:	3f 40 6e 00 	mov	#110,	r15	;#0x006e
    ff7c:	b0 12 38 ff 	call	#0xff38	
	LcdWrite(LCD_C, 0x29, 1); // Display on command
    ff80:	5d 43       	mov.b	#1,	r13	;r3 As==01
    ff82:	7e 40 29 00 	mov.b	#41,	r14	;#0x0029
    ff86:	4f 43       	clr.b	r15		
    ff88:	b0 12 d2 f8 	call	#0xf8d2	
}
    ff8c:	30 41       	ret			
    ff8e:	53 74       	.word	0x7453;	????	Illegal as 2-op instr
    ff90:	61 72       	subc.b	#4,	r1	;r2 As==10
    ff92:	74 0a       	.word	0x0a74;	????	
    ff94:	00 44       	br	r4		
    ff96:	6f 6e       	addc.b	@r14,	r15	
    ff98:	65 0a       	.word	0x0a65;	????	
	...

0000ff9c <_unexpected_>:
    ff9c:	00 13       	reti			

Disassembly of section .bss:

00000200 <BitCnt>:
	...

00000202 <TXByte>:
	...

Disassembly of section .vectors:

0000ffe0 <__ivtbl_16>:
    ffe0:	ce f8 ce f8 	and.b	r8,	-1842(r14);0xf8ce(r14)
    ffe4:	ce f8 ce f8 	and.b	r8,	-1842(r14);0xf8ce(r14)
    ffe8:	ce f8 ce f8 	and.b	r8,	-1842(r14);0xf8ce(r14)
    ffec:	ce f8 ce f8 	and.b	r8,	-1842(r14);0xf8ce(r14)
    fff0:	ce f8 ea fe 	and.b	r8,	-278(r14);0xfeea(r14)
    fff4:	ce f8 ce f8 	and.b	r8,	-1842(r14);0xf8ce(r14)
    fff8:	ce f8 ce f8 	and.b	r8,	-1842(r14);0xf8ce(r14)
    fffc:	ce f8 00 f8 	and.b	r8,	-2048(r14);0xf800(r14)

Disassembly of section .debug_aranges:

00000000 <.debug_aranges>:
   0:	14 00       	.word	0x0014;	????	
   2:	00 00       	.word	0x0000;	????	
   4:	02 00       	.word	0x0002;	????	
   6:	00 00       	.word	0x0000;	????	
   8:	00 00       	.word	0x0000;	????	
   a:	02 00       	.word	0x0002;	????	
   c:	d2 f8 c9 06 	and.b	1737(r8),&0xf838	;0x06c9(r8)
  10:	38 f8 
  12:	90 00       	.word	0x0090;	????	
  14:	00 00       	.word	0x0000;	????	
  16:	00 00       	.word	0x0000;	????	
  18:	10 00       	.word	0x0010;	????	
  1a:	00 00       	.word	0x0000;	????	
  1c:	02 00       	.word	0x0002;	????	
  1e:	89 04       	.word	0x0489;	????	
  20:	00 00       	.word	0x0000;	????	
  22:	02 00       	.word	0x0002;	????	
  24:	00 f8       	and	r8,	r0	
  26:	04 00       	.word	0x0004;	????	
  28:	00 00       	.word	0x0000;	????	
  2a:	00 00       	.word	0x0000;	????	
  2c:	10 00       	.word	0x0010;	????	
  2e:	00 00       	.word	0x0000;	????	
  30:	02 00       	.word	0x0002;	????	
  32:	42 05       	.word	0x0542;	????	
  34:	00 00       	.word	0x0000;	????	
  36:	02 00       	.word	0x0002;	????	
  38:	04 f8       	and	r8,	r4	
  3a:	0a 00       	.word	0x000a;	????	
  3c:	00 00       	.word	0x0000;	????	
  3e:	00 00       	.word	0x0000;	????	
  40:	10 00       	.word	0x0010;	????	
  42:	00 00       	.word	0x0000;	????	
  44:	02 00       	.word	0x0002;	????	
  46:	fb 05       	.word	0x05fb;	????	
  48:	00 00       	.word	0x0000;	????	
  4a:	02 00       	.word	0x0002;	????	
  4c:	0e f8       	and	r8,	r14	
  4e:	16 00       	.word	0x0016;	????	
  50:	00 00       	.word	0x0000;	????	
  52:	00 00       	.word	0x0000;	????	
  54:	10 00       	.word	0x0010;	????	
  56:	00 00       	.word	0x0000;	????	
  58:	02 00       	.word	0x0002;	????	
  5a:	b4 06       	.word	0x06b4;	????	
  5c:	00 00       	.word	0x0000;	????	
  5e:	02 00       	.word	0x0002;	????	
  60:	24 f8       	and	@r8,	r4	
  62:	14 00       	.word	0x0014;	????	
  64:	00 00       	.word	0x0000;	????	
  66:	00 00       	.word	0x0000;	????	
  68:	10 00       	.word	0x0010;	????	
  6a:	00 00       	.word	0x0000;	????	
  6c:	02 00       	.word	0x0002;	????	
  6e:	6d 07       	.word	0x076d;	????	
  70:	00 00       	.word	0x0000;	????	
  72:	02 00       	.word	0x0002;	????	
  74:	c8 f8 06 00 	and.b	r8,	6(r8)	;0x0006(r8)
  78:	00 00       	.word	0x0000;	????	
  7a:	00 00       	.word	0x0000;	????	
  7c:	10 00       	.word	0x0010;	????	
  7e:	00 00       	.word	0x0000;	????	
  80:	02 00       	.word	0x0002;	????	
  82:	26 08       	.word	0x0826;	????	
  84:	00 00       	.word	0x0000;	????	
  86:	02 00       	.word	0x0002;	????	
  88:	9c ff 02 00 	and	2(r15),	0(r12)	;0x0002(r15), 0x0000(r12)
  8c:	00 00 
	...

Disassembly of section .debug_pubnames:

00000000 <.debug_pubnames>:
   0:	af 00       	.word	0x00af;	????	
   2:	00 00       	.word	0x0000;	????	
   4:	02 00       	.word	0x0002;	????	
   6:	00 00       	.word	0x0000;	????	
   8:	00 00       	.word	0x0000;	????	
   a:	89 04       	.word	0x0489;	????	
   c:	00 00       	.word	0x0000;	????	
   e:	45 00       	.word	0x0045;	????	
  10:	00 00       	.word	0x0000;	????	
  12:	4c 63       	adc.b	r12		
  14:	64 57       	add.b	@r7,	r4	
  16:	72 69       	addc.b	@r9+,	r2	
  18:	74 65       	addc.b	@r5+,	r4	
  1a:	00 9e       	cmp	r14,	r0	
  1c:	00 00       	.word	0x0000;	????	
  1e:	00 4c       	br	r12		
  20:	63 64       	.word	0x6463;	????	Illegal as 2-op instr
  22:	52 65 61 64 	addc.b	25697(r5),r2	;0x6461(r5)
  26:	00 e2       	xor	r2,	r0	
  28:	00 00       	.word	0x0000;	????	
  2a:	00 62       	addc	r2,	r0	
  2c:	6c 5f       	add.b	@r15,	r12	
  2e:	69 6e       	addc.b	@r14,	r9	
  30:	69 74       	subc.b	@r4,	r9	
  32:	00 f1       	and	r1,	r0	
  34:	00 00       	.word	0x0000;	????	
  36:	00 54       	add	r4,	r0	
  38:	72 61       	addc.b	@r1+,	r2	
  3a:	6e 73       	subc.b	#2,	r14	;r3 As==10
  3c:	6d 69       	addc.b	@r9,	r13	
  3e:	74 00       	.word	0x0074;	????	
  40:	15 01       	.word	0x0115;	????	
  42:	00 00       	.word	0x0000;	????	
  44:	73 65       	.word	0x6573;	????	Illegal as 2-op instr
  46:	6e 64       	addc.b	@r4,	r14	
  48:	00 42       	br	r2		
  4a:	01 00       	.word	0x0001;	????	
  4c:	00 68       	addc	r8,	r0	
  4e:	65 78       	subc.b	@r8,	r5	
  50:	00 67       	addc	r7,	r0	
  52:	01 00       	.word	0x0001;	????	
  54:	00 4c       	br	r12		
  56:	63 64       	.word	0x6463;	????	Illegal as 2-op instr
  58:	54 65 73 74 	addc.b	29811(r5),r4	;0x7473(r5)
  5c:	00 8c       	sub	r12,	r0	
  5e:	01 00       	.word	0x0001;	????	
  60:	00 74       	subc	r4,	r0	
  62:	61 31       	jn	$+708    	;abs 0x326
  64:	5f 69 73 72 	addc.b	29299(r9),r15	;0x7273(r9)
  68:	00 9e       	cmp	r14,	r0	
  6a:	01 00       	.word	0x0001;	????	
  6c:	00 64       	addc	r4,	r0	
  6e:	65 6c       	addc.b	@r12,	r5	
  70:	61 79       	subc.b	@r9,	r1	
  72:	5f 6d 73 00 	addc.b	115(r13),r15	;0x0073(r13)
  76:	d8 01       	.word	0x01d8;	????	
  78:	00 00       	.word	0x0000;	????	
  7a:	4c 63       	adc.b	r12		
  7c:	64 55       	add.b	@r5,	r4	
  7e:	6e 49       	mov.b	@r9,	r14	
  80:	6e 69       	addc.b	@r9,	r14	
  82:	74 00       	.word	0x0074;	????	
  84:	e8 01       	.word	0x01e8;	????	
  86:	00 00       	.word	0x0000;	????	
  88:	4c 63       	adc.b	r12		
  8a:	64 49       	mov.b	@r9,	r4	
  8c:	6e 69       	addc.b	@r9,	r14	
  8e:	74 00       	.word	0x0074;	????	
  90:	f8 01       	.word	0x01f8;	????	
  92:	00 00       	.word	0x0000;	????	
  94:	6d 61       	addc.b	@r1,	r13	
  96:	69 6e       	addc.b	@r14,	r9	
  98:	00 68       	addc	r8,	r0	
  9a:	04 00       	.word	0x0004;	????	
  9c:	00 42       	br	r2		
  9e:	69 74       	subc.b	@r4,	r9	
  a0:	43 6e       	.word	0x6e43;	????	Illegal as 2-op instr
  a2:	74 00       	.word	0x0074;	????	
  a4:	78 04       	.word	0x0478;	????	
  a6:	00 00       	.word	0x0000;	????	
  a8:	54 58 42 79 	add.b	31042(r8),r4	;0x7942(r8)
  ac:	74 65       	addc.b	@r5+,	r4	
  ae:	00 00       	.word	0x0000;	????	
  b0:	00 00       	.word	0x0000;	????	
	...

Disassembly of section .debug_info:

00000000 <.debug_info>:
   0:	85 04       	.word	0x0485;	????	
   2:	00 00       	.word	0x0000;	????	
   4:	02 00       	.word	0x0002;	????	
   6:	00 00       	.word	0x0000;	????	
   8:	00 00       	.word	0x0000;	????	
   a:	02 01       	.word	0x0102;	????	
   c:	12 00       	.word	0x0012;	????	
   e:	00 00       	.word	0x0000;	????	
  10:	01 16       	.word	0x1601;	????	
  12:	01 00       	.word	0x0001;	????	
  14:	00 bf       	bit	r15,	r0	
	...
  22:	00 00       	.word	0x0000;	????	
  24:	00 02       	.word	0x0200;	????	
  26:	24 01       	.word	0x0124;	????	
  28:	00 00       	.word	0x0000;	????	
  2a:	01 51       	rla	r1		
  2c:	01 01       	.word	0x0101;	????	
  2e:	03 3e       	jmp	$-1016   	;abs 0xfc36
  30:	00 00       	.word	0x0000;	????	
  32:	00 03       	.word	0x0300;	????	
  34:	6e 00       	.word	0x006e;	????	
  36:	01 51       	rla	r1		
  38:	01 3e       	jmp	$-1020   	;abs 0xfc3c
  3a:	00 00       	.word	0x0000;	????	
  3c:	00 00       	.word	0x0000;	????	
  3e:	04 02       	.word	0x0204;	????	
  40:	07 99       	cmp	r9,	r7	
  42:	00 00       	.word	0x0000;	????	
  44:	00 05       	.word	0x0500;	????	
  46:	01 65       	addc	r5,	r1	
  48:	00 00       	.word	0x0000;	????	
  4a:	00 01       	.word	0x0100;	????	
  4c:	b6 01       	.word	0x01b6;	????	
  4e:	d2 f8 42 f9 	and.b	-1726(r8),&0x0000	;0xf942(r8)
  52:	00 00 
  54:	00 00       	.word	0x0000;	????	
  56:	90 00       	.word	0x0090;	????	
  58:	00 00       	.word	0x0000;	????	
  5a:	06 64       	addc	r4,	r6	
  5c:	6e 63       	addc.b	#2,	r14	;r3 As==10
  5e:	00 01       	.word	0x0100;	????	
  60:	b6 90 00 00 	cmp	#0,	5120(r6);#0x0000, 0x1400(r6)
  64:	00 14 
  66:	00 00       	.word	0x0000;	????	
  68:	00 07       	.word	0x0700;	????	
  6a:	49 00       	.word	0x0049;	????	
  6c:	00 00       	.word	0x0000;	????	
  6e:	01 b6       	bit	r6,	r1	
  70:	90 00       	.word	0x0090;	????	
  72:	00 00       	.word	0x0000;	????	
  74:	01 5e       	add	r14,	r1	
  76:	08 63       	adc	r8		
  78:	73 00       	.word	0x0073;	????	
  7a:	01 b6       	bit	r6,	r1	
  7c:	90 00       	.word	0x0090;	????	
  7e:	00 00       	.word	0x0000;	????	
  80:	01 5d       	add	r13,	r1	
  82:	09 69       	rlc	r9		
  84:	00 01       	.word	0x0100;	????	
  86:	b7 97 00 00 	cmp	@r7+,	0(r7)	;0x0000(r7)
  8a:	00 1f       	.word	0x1f00;	????	
  8c:	00 00       	.word	0x0000;	????	
  8e:	00 00       	.word	0x0000;	????	
  90:	04 01       	.word	0x0104;	????	
  92:	06 57       	add	r7,	r6	
  94:	00 00       	.word	0x0000;	????	
  96:	00 0a       	.word	0x0a00;	????	
  98:	02 05       	.word	0x0502;	????	
  9a:	69 6e       	addc.b	@r14,	r9	
  9c:	74 00       	.word	0x0074;	????	
  9e:	0b 01       	.word	0x010b;	????	
  a0:	62 01       	.word	0x0162;	????	
  a2:	00 00       	.word	0x0000;	????	
  a4:	01 d3       	bis	#0,	r1	;r3 As==00
  a6:	01 90       	cmp	r0,	r1	
  a8:	00 00       	.word	0x0000;	????	
  aa:	00 42       	br	r2		
  ac:	f9 88 f9 2b 	sub.b	@r8+,	11257(r9);0x2bf9(r9)
  b0:	00 00       	.word	0x0000;	????	
  b2:	00 e2       	xor	r2,	r0	
  b4:	00 00       	.word	0x0000;	????	
  b6:	00 06       	.word	0x0600;	????	
  b8:	63 73       	.word	0x7363;	????	Illegal as 2-op instr
  ba:	00 01       	.word	0x0100;	????	
  bc:	d3 90 00 00 	cmp.b	0x0000,	#1	;PC rel. 0x000c0, r3 As==01
  c0:	00 47       	br	r7		
  c2:	00 00       	.word	0x0000;	????	
  c4:	00 09       	.word	0x0900;	????	
  c6:	69 00       	.word	0x0069;	????	
  c8:	01 d4       	bis	r4,	r1	
  ca:	97 00       	.word	0x0097;	????	
  cc:	00 00       	.word	0x0000;	????	
  ce:	59 00       	.word	0x0059;	????	
  d0:	00 00       	.word	0x0000;	????	
  d2:	0c 49       	mov	r9,	r12	
  d4:	00 00       	.word	0x0000;	????	
  d6:	00 01       	.word	0x0100;	????	
  d8:	d5 90 00 00 	cmp.b	0x0000,	25856(r5);PC rel. 0x000dc, 0x6500(r5)
  dc:	00 65 
  de:	00 00       	.word	0x0000;	????	
  e0:	00 00       	.word	0x0000;	????	
  e2:	0d 01       	.word	0x010d;	????	
  e4:	4a 01       	.word	0x014a;	????	
  e6:	00 00       	.word	0x0000;	????	
  e8:	01 e5       	xor	r5,	r1	
  ea:	88 f9 a2 f9 	and	r9,	-1630(r8);0xf9a2(r8)
  ee:	02 71       	subc	r1,	r2	
  f0:	02 0e       	.word	0x0e02;	????	
  f2:	01 f3       	and	#0,	r1	;r3 As==00
  f4:	00 00       	.word	0x0000;	????	
  f6:	00 01       	.word	0x0100;	????	
  f8:	1e 01       	.word	0x011e;	????	
  fa:	01 a2       	dadd	r2,	r1	
  fc:	f9 dc f9 02 	bis.b	@r12+,	761(r9)	;0x02f9(r9)
 100:	71 02       	.word	0x0271;	????	
 102:	15 01       	.word	0x0115;	????	
 104:	00 00       	.word	0x0000;	????	
 106:	0f 63       	adc	r15		
 108:	00 01       	.word	0x0100;	????	
 10a:	1e 01       	.word	0x011e;	????	
 10c:	90 00       	.word	0x0090;	????	
 10e:	00 00       	.word	0x0000;	????	
 110:	78 00       	.word	0x0078;	????	
 112:	00 00       	.word	0x0000;	????	
 114:	00 10       	rrc	r0		
 116:	01 a6       	dadd	r6,	r1	
 118:	00 00       	.word	0x0000;	????	
 11a:	00 01       	.word	0x0100;	????	
 11c:	2f 01       	.word	0x012f;	????	
 11e:	01 dc       	bis	r12,	r1	
 120:	f9 f6 f9 83 	and.b	@r6+,	-31751(r9);0x83f9(r9)
 124:	00 00       	.word	0x0000;	????	
 126:	00 3c       	jmp	$+2      	;abs 0x128
 128:	01 00       	.word	0x0001;	????	
 12a:	00 0f       	.word	0x0f00;	????	
 12c:	73 74       	.word	0x7473;	????	Illegal as 2-op instr
 12e:	72 00       	.word	0x0072;	????	
 130:	01 2f       	jc	$-508    	;abs 0xff34
 132:	01 3c       	jmp	$+4      	;abs 0x136
 134:	01 00       	.word	0x0001;	????	
 136:	00 97       	cmp	r7,	r0	
 138:	00 00       	.word	0x0000;	????	
 13a:	00 00       	.word	0x0000;	????	
 13c:	11 02       	.word	0x0211;	????	
 13e:	90 00       	.word	0x0090;	????	
 140:	00 00       	.word	0x0000;	????	
 142:	12 01       	.word	0x0112;	????	
 144:	68 65       	addc.b	@r5,	r8	
 146:	78 00       	.word	0x0078;	????	
 148:	01 34       	jge	$+4      	;abs 0x14c
 14a:	01 01       	.word	0x0101;	????	
 14c:	f6 f9 60 fa 	and.b	@r9+,	-1440(r6);0xfa60(r6)
 150:	b0 00       	.word	0x00b0;	????	
 152:	00 00       	.word	0x0000;	????	
 154:	67 01       	.word	0x0167;	????	
 156:	00 00       	.word	0x0000;	????	
 158:	0f 78       	subc	r8,	r15	
 15a:	00 01       	.word	0x0100;	????	
 15c:	34 01       	.word	0x0134;	????	
 15e:	90 00       	.word	0x0090;	????	
 160:	00 00       	.word	0x0000;	????	
 162:	cc 00       	.word	0x00cc;	????	
 164:	00 00       	.word	0x0000;	????	
 166:	00 05       	.word	0x0500;	????	
 168:	01 00       	.word	0x0001;	????	
 16a:	00 00       	.word	0x0000;	????	
 16c:	00 01       	.word	0x0100;	????	
 16e:	3e 01       	.word	0x013e;	????	
 170:	2c fc       	and	@r12,	r12	
 172:	ea fe e5 00 	and.b	@r14,	229(r10);0x00e5(r10)
 176:	00 00       	.word	0x0000;	????	
 178:	8c 01       	.word	0x018c;	????	
 17a:	00 00       	.word	0x0000;	????	
 17c:	0c 49       	mov	r9,	r12	
 17e:	00 00       	.word	0x0000;	????	
 180:	00 01       	.word	0x0100;	????	
 182:	3f 90 00 00 	cmp	#0,	r15	;#0x0000
 186:	00 f9       	and	r9,	r0	
 188:	00 00       	.word	0x0000;	????	
 18a:	00 00       	.word	0x0000;	????	
 18c:	13 01       	.word	0x0113;	????	
 18e:	39 00       	.word	0x0039;	????	
 190:	00 00       	.word	0x0000;	????	
 192:	01 3a       	jl	$-1020   	;abs 0xfd96
 194:	01 01       	.word	0x0101;	????	
 196:	ea fe 38 ff 	and.b	@r14,	-200(r10);0xff38(r10)
 19a:	27 01       	.word	0x0127;	????	
 19c:	00 00       	.word	0x0000;	????	
 19e:	0e 01       	.word	0x010e;	????	
 1a0:	5c 00       	.word	0x005c;	????	
 1a2:	00 00       	.word	0x0000;	????	
 1a4:	01 4a       	mov	r10,	r1	
 1a6:	01 01       	.word	0x0101;	????	
 1a8:	38 ff       	and	@r15+,	r8	
 1aa:	4a ff       	and.b	r15,	r10	
 1ac:	02 71       	subc	r1,	r2	
 1ae:	02 d8       	bis	r8,	r2	
 1b0:	01 00       	.word	0x0001;	????	
 1b2:	00 0f       	.word	0x0f00;	????	
 1b4:	6e 00       	.word	0x006e;	????	
 1b6:	01 4a       	mov	r10,	r1	
 1b8:	01 3e       	jmp	$-1020   	;abs 0xfdbc
 1ba:	00 00       	.word	0x0000;	????	
 1bc:	00 4b       	br	r11		
 1be:	01 00       	.word	0x0001;	????	
 1c0:	00 14       	.word	0x1400;	????	
 1c2:	25 00       	.word	0x0025;	????	
 1c4:	00 00       	.word	0x0000;	????	
 1c6:	38 ff       	and	@r15+,	r8	
 1c8:	42 ff       	and.b	r15,	r2	
 1ca:	01 4c       	mov	r12,	r1	
 1cc:	01 15       	.word	0x1501;	????	
 1ce:	33 00       	.word	0x0033;	????	
 1d0:	00 00       	.word	0x0000;	????	
 1d2:	5d 01       	.word	0x015d;	????	
 1d4:	00 00       	.word	0x0000;	????	
 1d6:	00 00       	.word	0x0000;	????	
 1d8:	16 01       	.word	0x0116;	????	
 1da:	08 00       	.word	0x0008;	????	
 1dc:	00 00       	.word	0x0000;	????	
 1de:	01 38       	jl	$+4      	;abs 0x1e2
 1e0:	01 4a       	mov	r10,	r1	
 1e2:	ff 6c ff 02 	addc.b	@r12+,	767(r15);0x02ff(r15)
 1e6:	71 02       	.word	0x0271;	????	
 1e8:	16 01       	.word	0x0116;	????	
 1ea:	41 00       	.word	0x0041;	????	
 1ec:	00 00       	.word	0x0000;	????	
 1ee:	01 32       	jn	$-1020   	;abs 0xfdf2
 1f0:	01 6c       	addc	r12,	r1	
 1f2:	ff 8e ff 02 	sub.b	@r14+,	767(r15);0x02ff(r15)
 1f6:	71 02       	.word	0x0271;	????	
 1f8:	17 01       	.word	0x0117;	????	
 1fa:	94 00       	.word	0x0094;	????	
 1fc:	00 00       	.word	0x0000;	????	
 1fe:	01 ec       	xor	r12,	r1	
 200:	01 97       	cmp	r7,	r1	
 202:	00 00       	.word	0x0000;	????	
 204:	00 38       	jl	$+2      	;abs 0x206
 206:	f8 c8 f8 02 	bic.b	@r8+,	760(r8)	;0x02f8(r8)
 20a:	71 02       	.word	0x0271;	????	
 20c:	1c 02       	.word	0x021c;	????	
 20e:	00 00       	.word	0x0000;	????	
 210:	18 49 00 00 	mov	0(r9),	r8	;0x0000(r9)
 214:	00 01       	.word	0x0100;	????	
 216:	ed 90 00 00 	cmp.b	@r0,	0(r13)	;0x0000(r13)
 21a:	00 00       	.word	0x0000;	????	
 21c:	19 84 00 00 	sub	0(r4),	r9	;0x0000(r4)
 220:	00 02       	.word	0x0200;	????	
 222:	14 01       	.word	0x0114;	????	
 224:	81 00       	.word	0x0081;	????	
 226:	00 00       	.word	0x0000;	????	
 228:	2e 02       	.word	0x022e;	????	
 22a:	00 00       	.word	0x0000;	????	
 22c:	01 01       	.word	0x0101;	????	
 22e:	1a 33       	jn	$-458    	;abs 0x64
 230:	02 00       	.word	0x0002;	????	
 232:	00 04       	.word	0x0400;	????	
 234:	01 08       	.word	0x0801;	????	
 236:	4e 00       	.word	0x004e;	????	
 238:	00 00       	.word	0x0000;	????	
 23a:	19 b7 00 00 	bit	0(r7),	r9	;0x0000(r7)
 23e:	00 02       	.word	0x0200;	????	
 240:	16 01       	.word	0x0116;	????	
 242:	b4 00       	.word	0x00b4;	????	
 244:	00 00       	.word	0x0000;	????	
 246:	2e 02       	.word	0x022e;	????	
 248:	00 00       	.word	0x0000;	????	
 24a:	01 01       	.word	0x0101;	????	
 24c:	19 71 00 00 	subc	0(r1),	r9	;0x0000(r1)
 250:	00 02       	.word	0x0200;	????	
 252:	9c 01       	.word	0x019c;	????	
 254:	6e 00       	.word	0x006e;	????	
 256:	00 00       	.word	0x0000;	????	
 258:	5e 02       	.word	0x025e;	????	
 25a:	00 00       	.word	0x0000;	????	
 25c:	01 01       	.word	0x0101;	????	
 25e:	1b 2e       	jc	$-968    	;abs 0xfe96
 260:	02 00       	.word	0x0002;	????	
 262:	00 19       	.word	0x1900;	????	
 264:	55 01       	.word	0x0155;	????	
 266:	00 00       	.word	0x0000;	????	
 268:	02 9e       	cmp	r14,	r2	
 26a:	01 52       	add	r2,	r1	
 26c:	01 00       	.word	0x0001;	????	
 26e:	00 2e       	jc	$-1022   	;abs 0xfe70
 270:	02 00       	.word	0x0002;	????	
 272:	00 01       	.word	0x0100;	????	
 274:	01 19       	.word	0x1901;	????	
 276:	ae 00       	.word	0x00ae;	????	
 278:	00 00       	.word	0x0000;	????	
 27a:	02 a0       	dadd	r0,	r2	
 27c:	01 ab       	dadd	r11,	r1	
 27e:	00 00       	.word	0x0000;	????	
 280:	00 2e       	jc	$-1022   	;abs 0xfe82
 282:	02 00       	.word	0x0002;	????	
 284:	00 01       	.word	0x0100;	????	
 286:	01 19       	.word	0x1901;	????	
 288:	ed 00       	.word	0x00ed;	????	
 28a:	00 00       	.word	0x0000;	????	
 28c:	02 a8       	dadd	r8,	r2	
 28e:	01 ea       	xor	r10,	r1	
 290:	00 00       	.word	0x0000;	????	
 292:	00 2e       	jc	$-1022   	;abs 0xfe94
 294:	02 00       	.word	0x0002;	????	
 296:	00 01       	.word	0x0100;	????	
 298:	01 19       	.word	0x1901;	????	
 29a:	8e 00       	.word	0x008e;	????	
 29c:	00 00       	.word	0x0000;	????	
 29e:	02 c5       	bic	r5,	r2	
 2a0:	01 8b       	sub	r11,	r1	
 2a2:	00 00       	.word	0x0000;	????	
 2a4:	00 ab       	dadd	r11,	r0	
 2a6:	02 00       	.word	0x0002;	????	
 2a8:	00 01       	.word	0x0100;	????	
 2aa:	01 1a       	.word	0x1a01;	????	
 2ac:	3e 00       	.word	0x003e;	????	
 2ae:	00 00       	.word	0x0000;	????	
 2b0:	19 0e       	.word	0x0e19;	????	
 2b2:	01 00       	.word	0x0001;	????	
 2b4:	00 02       	.word	0x0200;	????	
 2b6:	c7 01       	.word	0x01c7;	????	
 2b8:	0b 01       	.word	0x010b;	????	
 2ba:	00 00       	.word	0x0000;	????	
 2bc:	ab 02       	.word	0x02ab;	????	
 2be:	00 00       	.word	0x0000;	????	
 2c0:	01 01       	.word	0x0101;	????	
 2c2:	19 79 00 00 	subc	0(r9),	r9	;0x0000(r9)
 2c6:	00 02       	.word	0x0200;	????	
 2c8:	c9 01       	.word	0x01c9;	????	
 2ca:	76 00       	.word	0x0076;	????	
 2cc:	00 00       	.word	0x0000;	????	
 2ce:	ab 02       	.word	0x02ab;	????	
 2d0:	00 00       	.word	0x0000;	????	
 2d2:	01 01       	.word	0x0101;	????	
 2d4:	1c 54 41 52 	add	21057(r4),r12	;0x5241(r4)
 2d8:	00 02       	.word	0x0200;	????	
 2da:	cb 01       	.word	0x01cb;	????	
 2dc:	5b 01       	.word	0x015b;	????	
 2de:	00 00       	.word	0x0000;	????	
 2e0:	ab 02       	.word	0x02ab;	????	
 2e2:	00 00       	.word	0x0000;	????	
 2e4:	01 01       	.word	0x0101;	????	
 2e6:	19 21       	jnz	$+564    	;abs 0x51a
 2e8:	00 00       	.word	0x0000;	????	
 2ea:	00 02       	.word	0x0200;	????	
 2ec:	cd 01       	.word	0x01cd;	????	
 2ee:	1e 00       	.word	0x001e;	????	
 2f0:	00 00       	.word	0x0000;	????	
 2f2:	ab 02       	.word	0x02ab;	????	
 2f4:	00 00       	.word	0x0000;	????	
 2f6:	01 01       	.word	0x0101;	????	
 2f8:	19 2b       	jnc	$-460    	;abs 0x12c
 2fa:	00 00       	.word	0x0000;	????	
 2fc:	00 02       	.word	0x0200;	????	
 2fe:	cf 01       	.word	0x01cf;	????	
 300:	28 00       	.word	0x0028;	????	
 302:	00 00       	.word	0x0000;	????	
 304:	ab 02       	.word	0x02ab;	????	
 306:	00 00       	.word	0x0000;	????	
 308:	01 01       	.word	0x0101;	????	
 30a:	19 43       	mov	#1,	r9	;r3 As==01
 30c:	01 00       	.word	0x0001;	????	
 30e:	00 02       	.word	0x0200;	????	
 310:	6e 02       	.word	0x026e;	????	
 312:	40 01       	.word	0x0140;	????	
 314:	00 00       	.word	0x0000;	????	
 316:	ab 02       	.word	0x02ab;	????	
 318:	00 00       	.word	0x0000;	????	
 31a:	01 01       	.word	0x0101;	????	
 31c:	19 ff 00 00 	and	0(r15),	r9	;0x0000(r15)
 320:	00 02       	.word	0x0200;	????	
 322:	aa 02       	.word	0x02aa;	????	
 324:	fc 00       	.word	0x00fc;	????	
 326:	00 00       	.word	0x0000;	????	
 328:	5e 02       	.word	0x025e;	????	
 32a:	00 00       	.word	0x0000;	????	
 32c:	01 01       	.word	0x0101;	????	
 32e:	19 34       	jge	$+52     	;abs 0x362
 330:	01 00       	.word	0x0001;	????	
 332:	00 02       	.word	0x0200;	????	
 334:	ac 02       	.word	0x02ac;	????	
 336:	31 01       	.word	0x0131;	????	
 338:	00 00       	.word	0x0000;	????	
 33a:	5e 02       	.word	0x025e;	????	
 33c:	00 00       	.word	0x0000;	????	
 33e:	01 01       	.word	0x0101;	????	
 340:	1d 1d       	.word	0x1d1d;	????	
 342:	01 00       	.word	0x0001;	????	
 344:	00 01       	.word	0x0100;	????	
 346:	22 33       	jn	$-442    	;abs 0x18c
 348:	02 00       	.word	0x0002;	????	
 34a:	00 01       	.word	0x0100;	????	
 34c:	01 1d       	.word	0x1d01;	????	
 34e:	32 00       	.word	0x0032;	????	
 350:	00 00       	.word	0x0000;	????	
 352:	01 23       	jnz	$-508    	;abs 0x156
 354:	3e 00       	.word	0x003e;	????	
 356:	00 00       	.word	0x0000;	????	
 358:	01 01       	.word	0x0101;	????	
 35a:	19 84 00 00 	sub	0(r4),	r9	;0x0000(r4)
 35e:	00 02       	.word	0x0200;	????	
 360:	14 01       	.word	0x0114;	????	
 362:	81 00       	.word	0x0081;	????	
 364:	00 00       	.word	0x0000;	????	
 366:	2e 02       	.word	0x022e;	????	
 368:	00 00       	.word	0x0000;	????	
 36a:	01 01       	.word	0x0101;	????	
 36c:	19 b7 00 00 	bit	0(r7),	r9	;0x0000(r7)
 370:	00 02       	.word	0x0200;	????	
 372:	16 01       	.word	0x0116;	????	
 374:	b4 00       	.word	0x00b4;	????	
 376:	00 00       	.word	0x0000;	????	
 378:	2e 02       	.word	0x022e;	????	
 37a:	00 00       	.word	0x0000;	????	
 37c:	01 01       	.word	0x0101;	????	
 37e:	19 71 00 00 	subc	0(r1),	r9	;0x0000(r1)
 382:	00 02       	.word	0x0200;	????	
 384:	9c 01       	.word	0x019c;	????	
 386:	6e 00       	.word	0x006e;	????	
 388:	00 00       	.word	0x0000;	????	
 38a:	5e 02       	.word	0x025e;	????	
 38c:	00 00       	.word	0x0000;	????	
 38e:	01 01       	.word	0x0101;	????	
 390:	19 55 01 00 	add	1(r5),	r9	;0x0001(r5)
 394:	00 02       	.word	0x0200;	????	
 396:	9e 01       	.word	0x019e;	????	
 398:	52 01       	.word	0x0152;	????	
 39a:	00 00       	.word	0x0000;	????	
 39c:	2e 02       	.word	0x022e;	????	
 39e:	00 00       	.word	0x0000;	????	
 3a0:	01 01       	.word	0x0101;	????	
 3a2:	19 ae 00 00 	dadd	0(r14),	r9	;0x0000(r14)
 3a6:	00 02       	.word	0x0200;	????	
 3a8:	a0 01       	.word	0x01a0;	????	
 3aa:	ab 00       	.word	0x00ab;	????	
 3ac:	00 00       	.word	0x0000;	????	
 3ae:	2e 02       	.word	0x022e;	????	
 3b0:	00 00       	.word	0x0000;	????	
 3b2:	01 01       	.word	0x0101;	????	
 3b4:	19 ed 00 00 	xor	0(r13),	r9	;0x0000(r13)
 3b8:	00 02       	.word	0x0200;	????	
 3ba:	a8 01       	.word	0x01a8;	????	
 3bc:	ea 00       	.word	0x00ea;	????	
 3be:	00 00       	.word	0x0000;	????	
 3c0:	2e 02       	.word	0x022e;	????	
 3c2:	00 00       	.word	0x0000;	????	
 3c4:	01 01       	.word	0x0101;	????	
 3c6:	19 8e 00 00 	sub	0(r14),	r9	;0x0000(r14)
 3ca:	00 02       	.word	0x0200;	????	
 3cc:	c5 01       	.word	0x01c5;	????	
 3ce:	8b 00       	.word	0x008b;	????	
 3d0:	00 00       	.word	0x0000;	????	
 3d2:	ab 02       	.word	0x02ab;	????	
 3d4:	00 00       	.word	0x0000;	????	
 3d6:	01 01       	.word	0x0101;	????	
 3d8:	19 0e       	.word	0x0e19;	????	
 3da:	01 00       	.word	0x0001;	????	
 3dc:	00 02       	.word	0x0200;	????	
 3de:	c7 01       	.word	0x01c7;	????	
 3e0:	0b 01       	.word	0x010b;	????	
 3e2:	00 00       	.word	0x0000;	????	
 3e4:	ab 02       	.word	0x02ab;	????	
 3e6:	00 00       	.word	0x0000;	????	
 3e8:	01 01       	.word	0x0101;	????	
 3ea:	19 79 00 00 	subc	0(r9),	r9	;0x0000(r9)
 3ee:	00 02       	.word	0x0200;	????	
 3f0:	c9 01       	.word	0x01c9;	????	
 3f2:	76 00       	.word	0x0076;	????	
 3f4:	00 00       	.word	0x0000;	????	
 3f6:	ab 02       	.word	0x02ab;	????	
 3f8:	00 00       	.word	0x0000;	????	
 3fa:	01 01       	.word	0x0101;	????	
 3fc:	1c 54 41 52 	add	21057(r4),r12	;0x5241(r4)
 400:	00 02       	.word	0x0200;	????	
 402:	cb 01       	.word	0x01cb;	????	
 404:	5b 01       	.word	0x015b;	????	
 406:	00 00       	.word	0x0000;	????	
 408:	ab 02       	.word	0x02ab;	????	
 40a:	00 00       	.word	0x0000;	????	
 40c:	01 01       	.word	0x0101;	????	
 40e:	19 21       	jnz	$+564    	;abs 0x642
 410:	00 00       	.word	0x0000;	????	
 412:	00 02       	.word	0x0200;	????	
 414:	cd 01       	.word	0x01cd;	????	
 416:	1e 00       	.word	0x001e;	????	
 418:	00 00       	.word	0x0000;	????	
 41a:	ab 02       	.word	0x02ab;	????	
 41c:	00 00       	.word	0x0000;	????	
 41e:	01 01       	.word	0x0101;	????	
 420:	19 2b       	jnc	$-460    	;abs 0x254
 422:	00 00       	.word	0x0000;	????	
 424:	00 02       	.word	0x0200;	????	
 426:	cf 01       	.word	0x01cf;	????	
 428:	28 00       	.word	0x0028;	????	
 42a:	00 00       	.word	0x0000;	????	
 42c:	ab 02       	.word	0x02ab;	????	
 42e:	00 00       	.word	0x0000;	????	
 430:	01 01       	.word	0x0101;	????	
 432:	19 43       	mov	#1,	r9	;r3 As==01
 434:	01 00       	.word	0x0001;	????	
 436:	00 02       	.word	0x0200;	????	
 438:	6e 02       	.word	0x026e;	????	
 43a:	40 01       	.word	0x0140;	????	
 43c:	00 00       	.word	0x0000;	????	
 43e:	ab 02       	.word	0x02ab;	????	
 440:	00 00       	.word	0x0000;	????	
 442:	01 01       	.word	0x0101;	????	
 444:	19 ff 00 00 	and	0(r15),	r9	;0x0000(r15)
 448:	00 02       	.word	0x0200;	????	
 44a:	aa 02       	.word	0x02aa;	????	
 44c:	fc 00       	.word	0x00fc;	????	
 44e:	00 00       	.word	0x0000;	????	
 450:	5e 02       	.word	0x025e;	????	
 452:	00 00       	.word	0x0000;	????	
 454:	01 01       	.word	0x0101;	????	
 456:	19 34       	jge	$+52     	;abs 0x48a
 458:	01 00       	.word	0x0001;	????	
 45a:	00 02       	.word	0x0200;	????	
 45c:	ac 02       	.word	0x02ac;	????	
 45e:	31 01       	.word	0x0131;	????	
 460:	00 00       	.word	0x0000;	????	
 462:	5e 02       	.word	0x025e;	????	
 464:	00 00       	.word	0x0000;	????	
 466:	01 01       	.word	0x0101;	????	
 468:	1e 1d       	.word	0x1d1e;	????	
 46a:	01 00       	.word	0x0001;	????	
 46c:	00 01       	.word	0x0100;	????	
 46e:	22 33       	jn	$-442    	;abs 0x2b4
 470:	02 00       	.word	0x0002;	????	
 472:	00 01       	.word	0x0100;	????	
 474:	03 03       	.word	0x0303;	????	
 476:	00 02       	.word	0x0200;	????	
 478:	1e 32       	jn	$-962    	;abs 0xb6
 47a:	00 00       	.word	0x0000;	????	
 47c:	00 01       	.word	0x0100;	????	
 47e:	23 3e       	jmp	$-952    	;abs 0xc6
 480:	00 00       	.word	0x0000;	????	
 482:	00 01       	.word	0x0100;	????	
 484:	03 03       	.word	0x0303;	????	
 486:	02 02       	.word	0x0202;	????	
 488:	00 b5       	bit	r5,	r0	
 48a:	00 00       	.word	0x0000;	????	
 48c:	00 02       	.word	0x0200;	????	
 48e:	00 f5       	and	r5,	r0	
 490:	01 00       	.word	0x0001;	????	
 492:	00 02       	.word	0x0200;	????	
 494:	01 b3       	bit	#0,	r1	;r3 As==00
 496:	01 00       	.word	0x0001;	????	
 498:	00 00       	.word	0x0000;	????	
 49a:	f8 04       	.word	0x04f8;	????	
 49c:	f8 2f       	jc	$-14     	;abs 0x48e
 49e:	62 75       	subc.b	@r5,	r2	
 4a0:	69 6c       	addc.b	@r12,	r9	
 4a2:	64 2f       	jc	$-310    	;abs 0x36c
 4a4:	62 75       	subc.b	@r5,	r2	
 4a6:	69 6c       	addc.b	@r12,	r9	
 4a8:	64 64       	addc.b	@r4,	r4	
 4aa:	2f 67       	addc	@r7,	r15	
 4ac:	63 63       	.word	0x6363;	????	Illegal as 2-op instr
 4ae:	2d 6d       	addc	@r13,	r13	
 4b0:	73 70       	.word	0x7073;	????	Illegal as 2-op instr
 4b2:	34 33       	jn	$-406    	;abs 0x31c
 4b4:	30 2d       	jc	$+610    	;abs 0x716
 4b6:	34 2e       	jc	$-918    	;abs 0x120
 4b8:	35 2e       	jc	$-916    	;abs 0x124
 4ba:	33 7e       	.word	0x7e33;	????	Illegal as 2-op instr
 4bc:	6d 73       	subc.b	#2,	r13	;r3 As==10
 4be:	70 67       	addc.b	@r7+,	r0	
 4c0:	63 63       	.word	0x6363;	????	Illegal as 2-op instr
 4c2:	2d 32       	jn	$-932    	;abs 0x11e
 4c4:	30 31       	jn	$+610    	;abs 0x726
 4c6:	31 30       	jn	$+100    	;abs 0x52a
 4c8:	37 31       	jn	$+624    	;abs 0x738
 4ca:	36 2f       	jc	$-402    	;abs 0x338
 4cc:	2e 2f       	jc	$-418    	;abs 0x32a
 4ce:	67 63       	addc.b	#2,	r7	;r3 As==10
 4d0:	63 2d       	jc	$+712    	;abs 0x798
 4d2:	34 2e       	jc	$-918    	;abs 0x13c
 4d4:	35 2e       	jc	$-916    	;abs 0x140
 4d6:	33 2f       	jc	$-408    	;abs 0x33e
 4d8:	67 63       	addc.b	#2,	r7	;r3 As==10
 4da:	63 2f       	jc	$-312    	;abs 0x3a2
 4dc:	63 6f       	.word	0x6f63;	????	Illegal as 2-op instr
 4de:	6e 66       	addc.b	@r6,	r14	
 4e0:	69 67       	addc.b	@r7,	r9	
 4e2:	2f 6d       	addc	@r13,	r15	
 4e4:	73 70       	.word	0x7073;	????	Illegal as 2-op instr
 4e6:	34 33       	jn	$-406    	;abs 0x350
 4e8:	30 2f       	jc	$-414    	;abs 0x34a
 4ea:	63 72       	.word	0x7263;	????	Illegal as 2-op instr
 4ec:	74 30       	jn	$+234    	;abs 0x5d6
 4ee:	2e 53       	incd	r14		
 4f0:	00 2f       	jc	$-510    	;abs 0x2f2
 4f2:	62 75       	subc.b	@r5,	r2	
 4f4:	69 6c       	addc.b	@r12,	r9	
 4f6:	64 2f       	jc	$-310    	;abs 0x3c0
 4f8:	62 75       	subc.b	@r5,	r2	
 4fa:	69 6c       	addc.b	@r12,	r9	
 4fc:	64 64       	addc.b	@r4,	r4	
 4fe:	2f 67       	addc	@r7,	r15	
 500:	63 63       	.word	0x6363;	????	Illegal as 2-op instr
 502:	2d 6d       	addc	@r13,	r13	
 504:	73 70       	.word	0x7073;	????	Illegal as 2-op instr
 506:	34 33       	jn	$-406    	;abs 0x370
 508:	30 2d       	jc	$+610    	;abs 0x76a
 50a:	34 2e       	jc	$-918    	;abs 0x174
 50c:	35 2e       	jc	$-916    	;abs 0x178
 50e:	33 7e       	.word	0x7e33;	????	Illegal as 2-op instr
 510:	6d 73       	subc.b	#2,	r13	;r3 As==10
 512:	70 67       	addc.b	@r7+,	r0	
 514:	63 63       	.word	0x6363;	????	Illegal as 2-op instr
 516:	2d 32       	jn	$-932    	;abs 0x172
 518:	30 31       	jn	$+610    	;abs 0x77a
 51a:	31 30       	jn	$+100    	;abs 0x57e
 51c:	37 31       	jn	$+624    	;abs 0x78c
 51e:	36 2f       	jc	$-402    	;abs 0x38c
 520:	62 75       	subc.b	@r5,	r2	
 522:	69 6c       	addc.b	@r12,	r9	
 524:	64 2d       	jc	$+714    	;abs 0x7ee
 526:	72 65       	addc.b	@r5+,	r2	
 528:	73 75       	.word	0x7573;	????	Illegal as 2-op instr
 52a:	6c 74       	subc.b	@r4,	r12	
 52c:	2f 67       	addc	@r7,	r15	
 52e:	63 63       	.word	0x6363;	????	Illegal as 2-op instr
 530:	00 47       	br	r7		
 532:	4e 55       	add.b	r5,	r14	
 534:	20 41       	br	@r1		
 536:	53 20       	jnz	$+168    	;abs 0x5de
 538:	32 2e       	jc	$-922    	;abs 0x19e
 53a:	32 31       	jn	$+614    	;abs 0x7a0
 53c:	2e 39       	jl	$+606    	;abs 0x79a
 53e:	30 00       	.word	0x0030;	????	
 540:	01 80       	sub	r0,	r1	
 542:	b5 00       	.word	0x00b5;	????	
 544:	00 00       	.word	0x0000;	????	
 546:	02 00       	.word	0x0002;	????	
 548:	09 02       	.word	0x0209;	????	
 54a:	00 00       	.word	0x0000;	????	
 54c:	02 01       	.word	0x0102;	????	
 54e:	35 02       	.word	0x0235;	????	
 550:	00 00       	.word	0x0000;	????	
 552:	04 f8       	and	r8,	r4	
 554:	0e f8       	and	r8,	r14	
 556:	2f 62       	addc	#4,	r15	;r2 As==10
 558:	75 69       	addc.b	@r9+,	r5	
 55a:	6c 64       	addc.b	@r4,	r12	
 55c:	2f 62       	addc	#4,	r15	;r2 As==10
 55e:	75 69       	addc.b	@r9+,	r5	
 560:	6c 64       	addc.b	@r4,	r12	
 562:	64 2f       	jc	$-310    	;abs 0x42c
 564:	67 63       	addc.b	#2,	r7	;r3 As==10
 566:	63 2d       	jc	$+712    	;abs 0x82e
 568:	6d 73       	subc.b	#2,	r13	;r3 As==10
 56a:	70 34       	jge	$+226    	;abs 0x64c
 56c:	33 30       	jn	$+104    	;abs 0x5d4
 56e:	2d 34       	jge	$+92     	;abs 0x5ca
 570:	2e 35       	jge	$+606    	;abs 0x7ce
 572:	2e 33       	jn	$-418    	;abs 0x3d0
 574:	7e 6d       	addc.b	@r13+,	r14	
 576:	73 70       	.word	0x7073;	????	Illegal as 2-op instr
 578:	67 63       	addc.b	#2,	r7	;r3 As==10
 57a:	63 2d       	jc	$+712    	;abs 0x842
 57c:	32 30       	jn	$+102    	;abs 0x5e2
 57e:	31 31       	jn	$+612    	;abs 0x7e2
 580:	30 37       	jge	$-414    	;abs 0x3e2
 582:	31 36       	jge	$-924    	;abs 0x1e6
 584:	2f 2e       	jc	$-928    	;abs 0x1e4
 586:	2f 67       	addc	@r7,	r15	
 588:	63 63       	.word	0x6363;	????	Illegal as 2-op instr
 58a:	2d 34       	jge	$+92     	;abs 0x5e6
 58c:	2e 35       	jge	$+606    	;abs 0x7ea
 58e:	2e 33       	jn	$-418    	;abs 0x3ec
 590:	2f 67       	addc	@r7,	r15	
 592:	63 63       	.word	0x6363;	????	Illegal as 2-op instr
 594:	2f 63       	addc	#2,	r15	;r3 As==10
 596:	6f 6e       	addc.b	@r14,	r15	
 598:	66 69       	addc.b	@r9,	r6	
 59a:	67 2f       	jc	$-304    	;abs 0x46a
 59c:	6d 73       	subc.b	#2,	r13	;r3 As==10
 59e:	70 34       	jge	$+226    	;abs 0x680
 5a0:	33 30       	jn	$+104    	;abs 0x608
 5a2:	2f 63       	addc	#2,	r15	;r3 As==10
 5a4:	72 74       	subc.b	@r4+,	r2	
 5a6:	30 2e       	jc	$-926    	;abs 0x208
 5a8:	53 00       	.word	0x0053;	????	
 5aa:	2f 62       	addc	#4,	r15	;r2 As==10
 5ac:	75 69       	addc.b	@r9+,	r5	
 5ae:	6c 64       	addc.b	@r4,	r12	
 5b0:	2f 62       	addc	#4,	r15	;r2 As==10
 5b2:	75 69       	addc.b	@r9+,	r5	
 5b4:	6c 64       	addc.b	@r4,	r12	
 5b6:	64 2f       	jc	$-310    	;abs 0x480
 5b8:	67 63       	addc.b	#2,	r7	;r3 As==10
 5ba:	63 2d       	jc	$+712    	;abs 0x882
 5bc:	6d 73       	subc.b	#2,	r13	;r3 As==10
 5be:	70 34       	jge	$+226    	;abs 0x6a0
 5c0:	33 30       	jn	$+104    	;abs 0x628
 5c2:	2d 34       	jge	$+92     	;abs 0x61e
 5c4:	2e 35       	jge	$+606    	;abs 0x822
 5c6:	2e 33       	jn	$-418    	;abs 0x424
 5c8:	7e 6d       	addc.b	@r13+,	r14	
 5ca:	73 70       	.word	0x7073;	????	Illegal as 2-op instr
 5cc:	67 63       	addc.b	#2,	r7	;r3 As==10
 5ce:	63 2d       	jc	$+712    	;abs 0x896
 5d0:	32 30       	jn	$+102    	;abs 0x636
 5d2:	31 31       	jn	$+612    	;abs 0x836
 5d4:	30 37       	jge	$-414    	;abs 0x436
 5d6:	31 36       	jge	$-924    	;abs 0x23a
 5d8:	2f 62       	addc	#4,	r15	;r2 As==10
 5da:	75 69       	addc.b	@r9+,	r5	
 5dc:	6c 64       	addc.b	@r4,	r12	
 5de:	2d 72       	subc	#4,	r13	;r2 As==10
 5e0:	65 73       	subc.b	#2,	r5	;r3 As==10
 5e2:	75 6c       	addc.b	@r12+,	r5	
 5e4:	74 2f       	jc	$-278    	;abs 0x4ce
 5e6:	67 63       	addc.b	#2,	r7	;r3 As==10
 5e8:	63 00       	.word	0x0063;	????	
 5ea:	47 4e       	mov.b	r14,	r7	
 5ec:	55 20       	jnz	$+172    	;abs 0x698
 5ee:	41 53       	add.b	#0,	r1	;r3 As==00
 5f0:	20 32       	jn	$-958    	;abs 0x232
 5f2:	2e 32       	jn	$-930    	;abs 0x250
 5f4:	31 2e       	jc	$-924    	;abs 0x258
 5f6:	39 30       	jn	$+116    	;abs 0x66a
 5f8:	00 01       	.word	0x0100;	????	
 5fa:	80 b5 00 00 	bit	r5,	0x0000	;PC rel. 0x005fe
 5fe:	00 02       	.word	0x0200;	????	
 600:	00 1d       	.word	0x1d00;	????	
 602:	02 00       	.word	0x0002;	????	
 604:	00 02       	.word	0x0200;	????	
 606:	01 b9       	bit	r9,	r1	
 608:	02 00       	.word	0x0002;	????	
 60a:	00 0e       	.word	0x0e00;	????	
 60c:	f8 24       	jz	$+498    	;abs 0x7fe
 60e:	f8 2f       	jc	$-14     	;abs 0x600
 610:	62 75       	subc.b	@r5,	r2	
 612:	69 6c       	addc.b	@r12,	r9	
 614:	64 2f       	jc	$-310    	;abs 0x4de
 616:	62 75       	subc.b	@r5,	r2	
 618:	69 6c       	addc.b	@r12,	r9	
 61a:	64 64       	addc.b	@r4,	r4	
 61c:	2f 67       	addc	@r7,	r15	
 61e:	63 63       	.word	0x6363;	????	Illegal as 2-op instr
 620:	2d 6d       	addc	@r13,	r13	
 622:	73 70       	.word	0x7073;	????	Illegal as 2-op instr
 624:	34 33       	jn	$-406    	;abs 0x48e
 626:	30 2d       	jc	$+610    	;abs 0x888
 628:	34 2e       	jc	$-918    	;abs 0x292
 62a:	35 2e       	jc	$-916    	;abs 0x296
 62c:	33 7e       	.word	0x7e33;	????	Illegal as 2-op instr
 62e:	6d 73       	subc.b	#2,	r13	;r3 As==10
 630:	70 67       	addc.b	@r7+,	r0	
 632:	63 63       	.word	0x6363;	????	Illegal as 2-op instr
 634:	2d 32       	jn	$-932    	;abs 0x290
 636:	30 31       	jn	$+610    	;abs 0x898
 638:	31 30       	jn	$+100    	;abs 0x69c
 63a:	37 31       	jn	$+624    	;abs 0x8aa
 63c:	36 2f       	jc	$-402    	;abs 0x4aa
 63e:	2e 2f       	jc	$-418    	;abs 0x49c
 640:	67 63       	addc.b	#2,	r7	;r3 As==10
 642:	63 2d       	jc	$+712    	;abs 0x90a
 644:	34 2e       	jc	$-918    	;abs 0x2ae
 646:	35 2e       	jc	$-916    	;abs 0x2b2
 648:	33 2f       	jc	$-408    	;abs 0x4b0
 64a:	67 63       	addc.b	#2,	r7	;r3 As==10
 64c:	63 2f       	jc	$-312    	;abs 0x514
 64e:	63 6f       	.word	0x6f63;	????	Illegal as 2-op instr
 650:	6e 66       	addc.b	@r6,	r14	
 652:	69 67       	addc.b	@r7,	r9	
 654:	2f 6d       	addc	@r13,	r15	
 656:	73 70       	.word	0x7073;	????	Illegal as 2-op instr
 658:	34 33       	jn	$-406    	;abs 0x4c2
 65a:	30 2f       	jc	$-414    	;abs 0x4bc
 65c:	63 72       	.word	0x7263;	????	Illegal as 2-op instr
 65e:	74 30       	jn	$+234    	;abs 0x748
 660:	2e 53       	incd	r14		
 662:	00 2f       	jc	$-510    	;abs 0x464
 664:	62 75       	subc.b	@r5,	r2	
 666:	69 6c       	addc.b	@r12,	r9	
 668:	64 2f       	jc	$-310    	;abs 0x532
 66a:	62 75       	subc.b	@r5,	r2	
 66c:	69 6c       	addc.b	@r12,	r9	
 66e:	64 64       	addc.b	@r4,	r4	
 670:	2f 67       	addc	@r7,	r15	
 672:	63 63       	.word	0x6363;	????	Illegal as 2-op instr
 674:	2d 6d       	addc	@r13,	r13	
 676:	73 70       	.word	0x7073;	????	Illegal as 2-op instr
 678:	34 33       	jn	$-406    	;abs 0x4e2
 67a:	30 2d       	jc	$+610    	;abs 0x8dc
 67c:	34 2e       	jc	$-918    	;abs 0x2e6
 67e:	35 2e       	jc	$-916    	;abs 0x2ea
 680:	33 7e       	.word	0x7e33;	????	Illegal as 2-op instr
 682:	6d 73       	subc.b	#2,	r13	;r3 As==10
 684:	70 67       	addc.b	@r7+,	r0	
 686:	63 63       	.word	0x6363;	????	Illegal as 2-op instr
 688:	2d 32       	jn	$-932    	;abs 0x2e4
 68a:	30 31       	jn	$+610    	;abs 0x8ec
 68c:	31 30       	jn	$+100    	;abs 0x6f0
 68e:	37 31       	jn	$+624    	;abs 0x8fe
 690:	36 2f       	jc	$-402    	;abs 0x4fe
 692:	62 75       	subc.b	@r5,	r2	
 694:	69 6c       	addc.b	@r12,	r9	
 696:	64 2d       	jc	$+714    	;abs 0x960
 698:	72 65       	addc.b	@r5+,	r2	
 69a:	73 75       	.word	0x7573;	????	Illegal as 2-op instr
 69c:	6c 74       	subc.b	@r4,	r12	
 69e:	2f 67       	addc	@r7,	r15	
 6a0:	63 63       	.word	0x6363;	????	Illegal as 2-op instr
 6a2:	00 47       	br	r7		
 6a4:	4e 55       	add.b	r5,	r14	
 6a6:	20 41       	br	@r1		
 6a8:	53 20       	jnz	$+168    	;abs 0x750
 6aa:	32 2e       	jc	$-922    	;abs 0x310
 6ac:	32 31       	jn	$+614    	;abs 0x912
 6ae:	2e 39       	jl	$+606    	;abs 0x90c
 6b0:	30 00       	.word	0x0030;	????	
 6b2:	01 80       	sub	r0,	r1	
 6b4:	b5 00       	.word	0x00b5;	????	
 6b6:	00 00       	.word	0x0000;	????	
 6b8:	02 00       	.word	0x0002;	????	
 6ba:	31 02       	.word	0x0231;	????	
 6bc:	00 00       	.word	0x0000;	????	
 6be:	02 01       	.word	0x0102;	????	
 6c0:	41 03       	.word	0x0341;	????	
 6c2:	00 00       	.word	0x0000;	????	
 6c4:	24 f8       	and	@r8,	r4	
 6c6:	38 f8       	and	@r8+,	r8	
 6c8:	2f 62       	addc	#4,	r15	;r2 As==10
 6ca:	75 69       	addc.b	@r9+,	r5	
 6cc:	6c 64       	addc.b	@r4,	r12	
 6ce:	2f 62       	addc	#4,	r15	;r2 As==10
 6d0:	75 69       	addc.b	@r9+,	r5	
 6d2:	6c 64       	addc.b	@r4,	r12	
 6d4:	64 2f       	jc	$-310    	;abs 0x59e
 6d6:	67 63       	addc.b	#2,	r7	;r3 As==10
 6d8:	63 2d       	jc	$+712    	;abs 0x9a0
 6da:	6d 73       	subc.b	#2,	r13	;r3 As==10
 6dc:	70 34       	jge	$+226    	;abs 0x7be
 6de:	33 30       	jn	$+104    	;abs 0x746
 6e0:	2d 34       	jge	$+92     	;abs 0x73c
 6e2:	2e 35       	jge	$+606    	;abs 0x940
 6e4:	2e 33       	jn	$-418    	;abs 0x542
 6e6:	7e 6d       	addc.b	@r13+,	r14	
 6e8:	73 70       	.word	0x7073;	????	Illegal as 2-op instr
 6ea:	67 63       	addc.b	#2,	r7	;r3 As==10
 6ec:	63 2d       	jc	$+712    	;abs 0x9b4
 6ee:	32 30       	jn	$+102    	;abs 0x754
 6f0:	31 31       	jn	$+612    	;abs 0x954
 6f2:	30 37       	jge	$-414    	;abs 0x554
 6f4:	31 36       	jge	$-924    	;abs 0x358
 6f6:	2f 2e       	jc	$-928    	;abs 0x356
 6f8:	2f 67       	addc	@r7,	r15	
 6fa:	63 63       	.word	0x6363;	????	Illegal as 2-op instr
 6fc:	2d 34       	jge	$+92     	;abs 0x758
 6fe:	2e 35       	jge	$+606    	;abs 0x95c
 700:	2e 33       	jn	$-418    	;abs 0x55e
 702:	2f 67       	addc	@r7,	r15	
 704:	63 63       	.word	0x6363;	????	Illegal as 2-op instr
 706:	2f 63       	addc	#2,	r15	;r3 As==10
 708:	6f 6e       	addc.b	@r14,	r15	
 70a:	66 69       	addc.b	@r9,	r6	
 70c:	67 2f       	jc	$-304    	;abs 0x5dc
 70e:	6d 73       	subc.b	#2,	r13	;r3 As==10
 710:	70 34       	jge	$+226    	;abs 0x7f2
 712:	33 30       	jn	$+104    	;abs 0x77a
 714:	2f 63       	addc	#2,	r15	;r3 As==10
 716:	72 74       	subc.b	@r4+,	r2	
 718:	30 2e       	jc	$-926    	;abs 0x37a
 71a:	53 00       	.word	0x0053;	????	
 71c:	2f 62       	addc	#4,	r15	;r2 As==10
 71e:	75 69       	addc.b	@r9+,	r5	
 720:	6c 64       	addc.b	@r4,	r12	
 722:	2f 62       	addc	#4,	r15	;r2 As==10
 724:	75 69       	addc.b	@r9+,	r5	
 726:	6c 64       	addc.b	@r4,	r12	
 728:	64 2f       	jc	$-310    	;abs 0x5f2
 72a:	67 63       	addc.b	#2,	r7	;r3 As==10
 72c:	63 2d       	jc	$+712    	;abs 0x9f4
 72e:	6d 73       	subc.b	#2,	r13	;r3 As==10
 730:	70 34       	jge	$+226    	;abs 0x812
 732:	33 30       	jn	$+104    	;abs 0x79a
 734:	2d 34       	jge	$+92     	;abs 0x790
 736:	2e 35       	jge	$+606    	;abs 0x994
 738:	2e 33       	jn	$-418    	;abs 0x596
 73a:	7e 6d       	addc.b	@r13+,	r14	
 73c:	73 70       	.word	0x7073;	????	Illegal as 2-op instr
 73e:	67 63       	addc.b	#2,	r7	;r3 As==10
 740:	63 2d       	jc	$+712    	;abs 0xa08
 742:	32 30       	jn	$+102    	;abs 0x7a8
 744:	31 31       	jn	$+612    	;abs 0x9a8
 746:	30 37       	jge	$-414    	;abs 0x5a8
 748:	31 36       	jge	$-924    	;abs 0x3ac
 74a:	2f 62       	addc	#4,	r15	;r2 As==10
 74c:	75 69       	addc.b	@r9+,	r5	
 74e:	6c 64       	addc.b	@r4,	r12	
 750:	2d 72       	subc	#4,	r13	;r2 As==10
 752:	65 73       	subc.b	#2,	r5	;r3 As==10
 754:	75 6c       	addc.b	@r12+,	r5	
 756:	74 2f       	jc	$-278    	;abs 0x640
 758:	67 63       	addc.b	#2,	r7	;r3 As==10
 75a:	63 00       	.word	0x0063;	????	
 75c:	47 4e       	mov.b	r14,	r7	
 75e:	55 20       	jnz	$+172    	;abs 0x80a
 760:	41 53       	add.b	#0,	r1	;r3 As==00
 762:	20 32       	jn	$-958    	;abs 0x3a4
 764:	2e 32       	jn	$-930    	;abs 0x3c2
 766:	31 2e       	jc	$-924    	;abs 0x3ca
 768:	39 30       	jn	$+116    	;abs 0x7dc
 76a:	00 01       	.word	0x0100;	????	
 76c:	80 b5 00 00 	bit	r5,	0x0000	;PC rel. 0x00770
 770:	00 02       	.word	0x0200;	????	
 772:	00 45       	br	r5		
 774:	02 00       	.word	0x0002;	????	
 776:	00 02       	.word	0x0200;	????	
 778:	01 c9       	bic	r9,	r1	
 77a:	03 00       	.word	0x0003;	????	
 77c:	00 c8       	bic	r8,	r0	
 77e:	f8 ce f8 2f 	bic.b	@r14+,	12280(r8);0x2ff8(r8)
 782:	62 75       	subc.b	@r5,	r2	
 784:	69 6c       	addc.b	@r12,	r9	
 786:	64 2f       	jc	$-310    	;abs 0x650
 788:	62 75       	subc.b	@r5,	r2	
 78a:	69 6c       	addc.b	@r12,	r9	
 78c:	64 64       	addc.b	@r4,	r4	
 78e:	2f 67       	addc	@r7,	r15	
 790:	63 63       	.word	0x6363;	????	Illegal as 2-op instr
 792:	2d 6d       	addc	@r13,	r13	
 794:	73 70       	.word	0x7073;	????	Illegal as 2-op instr
 796:	34 33       	jn	$-406    	;abs 0x600
 798:	30 2d       	jc	$+610    	;abs 0x9fa
 79a:	34 2e       	jc	$-918    	;abs 0x404
 79c:	35 2e       	jc	$-916    	;abs 0x408
 79e:	33 7e       	.word	0x7e33;	????	Illegal as 2-op instr
 7a0:	6d 73       	subc.b	#2,	r13	;r3 As==10
 7a2:	70 67       	addc.b	@r7+,	r0	
 7a4:	63 63       	.word	0x6363;	????	Illegal as 2-op instr
 7a6:	2d 32       	jn	$-932    	;abs 0x402
 7a8:	30 31       	jn	$+610    	;abs 0xa0a
 7aa:	31 30       	jn	$+100    	;abs 0x80e
 7ac:	37 31       	jn	$+624    	;abs 0xa1c
 7ae:	36 2f       	jc	$-402    	;abs 0x61c
 7b0:	2e 2f       	jc	$-418    	;abs 0x60e
 7b2:	67 63       	addc.b	#2,	r7	;r3 As==10
 7b4:	63 2d       	jc	$+712    	;abs 0xa7c
 7b6:	34 2e       	jc	$-918    	;abs 0x420
 7b8:	35 2e       	jc	$-916    	;abs 0x424
 7ba:	33 2f       	jc	$-408    	;abs 0x622
 7bc:	67 63       	addc.b	#2,	r7	;r3 As==10
 7be:	63 2f       	jc	$-312    	;abs 0x686
 7c0:	63 6f       	.word	0x6f63;	????	Illegal as 2-op instr
 7c2:	6e 66       	addc.b	@r6,	r14	
 7c4:	69 67       	addc.b	@r7,	r9	
 7c6:	2f 6d       	addc	@r13,	r15	
 7c8:	73 70       	.word	0x7073;	????	Illegal as 2-op instr
 7ca:	34 33       	jn	$-406    	;abs 0x634
 7cc:	30 2f       	jc	$-414    	;abs 0x62e
 7ce:	63 72       	.word	0x7263;	????	Illegal as 2-op instr
 7d0:	74 30       	jn	$+234    	;abs 0x8ba
 7d2:	2e 53       	incd	r14		
 7d4:	00 2f       	jc	$-510    	;abs 0x5d6
 7d6:	62 75       	subc.b	@r5,	r2	
 7d8:	69 6c       	addc.b	@r12,	r9	
 7da:	64 2f       	jc	$-310    	;abs 0x6a4
 7dc:	62 75       	subc.b	@r5,	r2	
 7de:	69 6c       	addc.b	@r12,	r9	
 7e0:	64 64       	addc.b	@r4,	r4	
 7e2:	2f 67       	addc	@r7,	r15	
 7e4:	63 63       	.word	0x6363;	????	Illegal as 2-op instr
 7e6:	2d 6d       	addc	@r13,	r13	
 7e8:	73 70       	.word	0x7073;	????	Illegal as 2-op instr
 7ea:	34 33       	jn	$-406    	;abs 0x654
 7ec:	30 2d       	jc	$+610    	;abs 0xa4e
 7ee:	34 2e       	jc	$-918    	;abs 0x458
 7f0:	35 2e       	jc	$-916    	;abs 0x45c
 7f2:	33 7e       	.word	0x7e33;	????	Illegal as 2-op instr
 7f4:	6d 73       	subc.b	#2,	r13	;r3 As==10
 7f6:	70 67       	addc.b	@r7+,	r0	
 7f8:	63 63       	.word	0x6363;	????	Illegal as 2-op instr
 7fa:	2d 32       	jn	$-932    	;abs 0x456
 7fc:	30 31       	jn	$+610    	;abs 0xa5e
 7fe:	31 30       	jn	$+100    	;abs 0x862
 800:	37 31       	jn	$+624    	;abs 0xa70
 802:	36 2f       	jc	$-402    	;abs 0x670
 804:	62 75       	subc.b	@r5,	r2	
 806:	69 6c       	addc.b	@r12,	r9	
 808:	64 2d       	jc	$+714    	;abs 0xad2
 80a:	72 65       	addc.b	@r5+,	r2	
 80c:	73 75       	.word	0x7573;	????	Illegal as 2-op instr
 80e:	6c 74       	subc.b	@r4,	r12	
 810:	2f 67       	addc	@r7,	r15	
 812:	63 63       	.word	0x6363;	????	Illegal as 2-op instr
 814:	00 47       	br	r7		
 816:	4e 55       	add.b	r5,	r14	
 818:	20 41       	br	@r1		
 81a:	53 20       	jnz	$+168    	;abs 0x8c2
 81c:	32 2e       	jc	$-922    	;abs 0x482
 81e:	32 31       	jn	$+614    	;abs 0xa84
 820:	2e 39       	jl	$+606    	;abs 0xa7e
 822:	30 00       	.word	0x0030;	????	
 824:	01 80       	sub	r0,	r1	
 826:	b5 00       	.word	0x00b5;	????	
 828:	00 00       	.word	0x0000;	????	
 82a:	02 00       	.word	0x0002;	????	
 82c:	59 02       	.word	0x0259;	????	
 82e:	00 00       	.word	0x0000;	????	
 830:	02 01       	.word	0x0102;	????	
 832:	4c 04       	.word	0x044c;	????	
 834:	00 00       	.word	0x0000;	????	
 836:	9c ff 9e ff 	and	-98(r15),25135(r12);0xff9e(r15), 0x622f(r12)
 83a:	2f 62 
 83c:	75 69       	addc.b	@r9+,	r5	
 83e:	6c 64       	addc.b	@r4,	r12	
 840:	2f 62       	addc	#4,	r15	;r2 As==10
 842:	75 69       	addc.b	@r9+,	r5	
 844:	6c 64       	addc.b	@r4,	r12	
 846:	64 2f       	jc	$-310    	;abs 0x710
 848:	67 63       	addc.b	#2,	r7	;r3 As==10
 84a:	63 2d       	jc	$+712    	;abs 0xb12
 84c:	6d 73       	subc.b	#2,	r13	;r3 As==10
 84e:	70 34       	jge	$+226    	;abs 0x930
 850:	33 30       	jn	$+104    	;abs 0x8b8
 852:	2d 34       	jge	$+92     	;abs 0x8ae
 854:	2e 35       	jge	$+606    	;abs 0xab2
 856:	2e 33       	jn	$-418    	;abs 0x6b4
 858:	7e 6d       	addc.b	@r13+,	r14	
 85a:	73 70       	.word	0x7073;	????	Illegal as 2-op instr
 85c:	67 63       	addc.b	#2,	r7	;r3 As==10
 85e:	63 2d       	jc	$+712    	;abs 0xb26
 860:	32 30       	jn	$+102    	;abs 0x8c6
 862:	31 31       	jn	$+612    	;abs 0xac6
 864:	30 37       	jge	$-414    	;abs 0x6c6
 866:	31 36       	jge	$-924    	;abs 0x4ca
 868:	2f 2e       	jc	$-928    	;abs 0x4c8
 86a:	2f 67       	addc	@r7,	r15	
 86c:	63 63       	.word	0x6363;	????	Illegal as 2-op instr
 86e:	2d 34       	jge	$+92     	;abs 0x8ca
 870:	2e 35       	jge	$+606    	;abs 0xace
 872:	2e 33       	jn	$-418    	;abs 0x6d0
 874:	2f 67       	addc	@r7,	r15	
 876:	63 63       	.word	0x6363;	????	Illegal as 2-op instr
 878:	2f 63       	addc	#2,	r15	;r3 As==10
 87a:	6f 6e       	addc.b	@r14,	r15	
 87c:	66 69       	addc.b	@r9,	r6	
 87e:	67 2f       	jc	$-304    	;abs 0x74e
 880:	6d 73       	subc.b	#2,	r13	;r3 As==10
 882:	70 34       	jge	$+226    	;abs 0x964
 884:	33 30       	jn	$+104    	;abs 0x8ec
 886:	2f 63       	addc	#2,	r15	;r3 As==10
 888:	72 74       	subc.b	@r4+,	r2	
 88a:	30 2e       	jc	$-926    	;abs 0x4ec
 88c:	53 00       	.word	0x0053;	????	
 88e:	2f 62       	addc	#4,	r15	;r2 As==10
 890:	75 69       	addc.b	@r9+,	r5	
 892:	6c 64       	addc.b	@r4,	r12	
 894:	2f 62       	addc	#4,	r15	;r2 As==10
 896:	75 69       	addc.b	@r9+,	r5	
 898:	6c 64       	addc.b	@r4,	r12	
 89a:	64 2f       	jc	$-310    	;abs 0x764
 89c:	67 63       	addc.b	#2,	r7	;r3 As==10
 89e:	63 2d       	jc	$+712    	;abs 0xb66
 8a0:	6d 73       	subc.b	#2,	r13	;r3 As==10
 8a2:	70 34       	jge	$+226    	;abs 0x984
 8a4:	33 30       	jn	$+104    	;abs 0x90c
 8a6:	2d 34       	jge	$+92     	;abs 0x902
 8a8:	2e 35       	jge	$+606    	;abs 0xb06
 8aa:	2e 33       	jn	$-418    	;abs 0x708
 8ac:	7e 6d       	addc.b	@r13+,	r14	
 8ae:	73 70       	.word	0x7073;	????	Illegal as 2-op instr
 8b0:	67 63       	addc.b	#2,	r7	;r3 As==10
 8b2:	63 2d       	jc	$+712    	;abs 0xb7a
 8b4:	32 30       	jn	$+102    	;abs 0x91a
 8b6:	31 31       	jn	$+612    	;abs 0xb1a
 8b8:	30 37       	jge	$-414    	;abs 0x71a
 8ba:	31 36       	jge	$-924    	;abs 0x51e
 8bc:	2f 62       	addc	#4,	r15	;r2 As==10
 8be:	75 69       	addc.b	@r9+,	r5	
 8c0:	6c 64       	addc.b	@r4,	r12	
 8c2:	2d 72       	subc	#4,	r13	;r2 As==10
 8c4:	65 73       	subc.b	#2,	r5	;r3 As==10
 8c6:	75 6c       	addc.b	@r12+,	r5	
 8c8:	74 2f       	jc	$-278    	;abs 0x7b2
 8ca:	67 63       	addc.b	#2,	r7	;r3 As==10
 8cc:	63 00       	.word	0x0063;	????	
 8ce:	47 4e       	mov.b	r14,	r7	
 8d0:	55 20       	jnz	$+172    	;abs 0x97c
 8d2:	41 53       	add.b	#0,	r1	;r3 As==00
 8d4:	20 32       	jn	$-958    	;abs 0x516
 8d6:	2e 32       	jn	$-930    	;abs 0x534
 8d8:	31 2e       	jc	$-924    	;abs 0x53c
 8da:	39 30       	jn	$+116    	;abs 0x94e
 8dc:	00 01       	.word	0x0100;	????	
 8de:	80 00       	Address 0x000008de is out of bounds.
Address 0x000008e0 is out of bounds.
and.b	@r15+,	-1(r15)	;0xffff(r15)

Disassembly of section .debug_abbrev:

00000000 <.debug_abbrev>:
   0:	01 11       	rra	r1		
   2:	01 25       	jz	$+516    	;abs 0x206
   4:	0e 13       	reti			;return from interupt
   6:	0b 03       	.word	0x030b;	????	
   8:	0e 1b       	.word	0x1b0e;	????	
   a:	0e 11       	rra	r14		
   c:	01 52       	add	r2,	r1	
   e:	01 55       	add	r5,	r1	
  10:	06 10       	rrc	r6		
  12:	06 00       	.word	0x0006;	????	
  14:	00 02       	.word	0x0200;	????	
  16:	2e 01       	.word	0x012e;	????	
  18:	03 0e       	.word	0x0e03;	????	
  1a:	3a 0b       	.word	0x0b3a;	????	
  1c:	3b 05       	.word	0x053b;	????	
  1e:	27 0c       	.word	0x0c27;	????	
  20:	20 0b       	.word	0x0b20;	????	
  22:	01 13       	reti			;return from interupt
  24:	00 00       	.word	0x0000;	????	
  26:	03 05       	.word	0x0503;	????	
  28:	00 03       	.word	0x0300;	????	
  2a:	08 3a       	jl	$-1006   	;abs 0xfc3c
  2c:	0b 3b       	jl	$-488    	;abs 0xfe44
  2e:	05 49       	mov	r9,	r5	
  30:	13 00       	.word	0x0013;	????	
  32:	00 04       	.word	0x0400;	????	
  34:	24 00       	.word	0x0024;	????	
  36:	0b 0b       	.word	0x0b0b;	????	
  38:	3e 0b       	.word	0x0b3e;	????	
  3a:	03 0e       	.word	0x0e03;	????	
  3c:	00 00       	.word	0x0000;	????	
  3e:	05 2e       	jc	$-1012   	;abs 0xfc4a
  40:	01 3f       	jmp	$-508    	;abs 0xfe44
  42:	0c 03       	.word	0x030c;	????	
  44:	0e 3a       	jl	$-994    	;abs 0xfc62
  46:	0b 3b       	jl	$-488    	;abs 0xfe5e
  48:	0b 27       	jz	$-488    	;abs 0xfe60
  4a:	0c 11       	rra	r12		
  4c:	01 12       	push	r1		
  4e:	01 40       	mov	r0,	r1	
  50:	06 01       	.word	0x0106;	????	
  52:	13 00       	.word	0x0013;	????	
  54:	00 06       	.word	0x0600;	????	
  56:	05 00       	.word	0x0005;	????	
  58:	03 08       	.word	0x0803;	????	
  5a:	3a 0b       	.word	0x0b3a;	????	
  5c:	3b 0b       	.word	0x0b3b;	????	
  5e:	49 13       	.word	0x1349;	????	
  60:	02 06       	.word	0x0602;	????	
  62:	00 00       	.word	0x0000;	????	
  64:	07 05       	.word	0x0507;	????	
  66:	00 03       	.word	0x0300;	????	
  68:	0e 3a       	jl	$-994    	;abs 0xfc86
  6a:	0b 3b       	jl	$-488    	;abs 0xfe82
  6c:	0b 49       	mov	r9,	r11	
  6e:	13 02       	.word	0x0213;	????	
  70:	0a 00       	.word	0x000a;	????	
  72:	00 08       	.word	0x0800;	????	
  74:	05 00       	.word	0x0005;	????	
  76:	03 08       	.word	0x0803;	????	
  78:	3a 0b       	.word	0x0b3a;	????	
  7a:	3b 0b       	.word	0x0b3b;	????	
  7c:	49 13       	.word	0x1349;	????	
  7e:	02 0a       	.word	0x0a02;	????	
  80:	00 00       	.word	0x0000;	????	
  82:	09 34       	jge	$+20     	;abs 0x96
  84:	00 03       	.word	0x0300;	????	
  86:	08 3a       	jl	$-1006   	;abs 0xfc98
  88:	0b 3b       	jl	$-488    	;abs 0xfea0
  8a:	0b 49       	mov	r9,	r11	
  8c:	13 02       	.word	0x0213;	????	
  8e:	06 00       	.word	0x0006;	????	
  90:	00 0a       	.word	0x0a00;	????	
  92:	24 00       	.word	0x0024;	????	
  94:	0b 0b       	.word	0x0b0b;	????	
  96:	3e 0b       	.word	0x0b3e;	????	
  98:	03 08       	.word	0x0803;	????	
  9a:	00 00       	.word	0x0000;	????	
  9c:	0b 2e       	jc	$-1000   	;abs 0xfcb4
  9e:	01 3f       	jmp	$-508    	;abs 0xfea2
  a0:	0c 03       	.word	0x030c;	????	
  a2:	0e 3a       	jl	$-994    	;abs 0xfcc0
  a4:	0b 3b       	jl	$-488    	;abs 0xfebc
  a6:	0b 27       	jz	$-488    	;abs 0xfebe
  a8:	0c 49       	mov	r9,	r12	
  aa:	13 11       	rra	#1		;r3 As==01
  ac:	01 12       	push	r1		
  ae:	01 40       	mov	r0,	r1	
  b0:	06 01       	.word	0x0106;	????	
  b2:	13 00       	.word	0x0013;	????	
  b4:	00 0c       	.word	0x0c00;	????	
  b6:	34 00       	.word	0x0034;	????	
  b8:	03 0e       	.word	0x0e03;	????	
  ba:	3a 0b       	.word	0x0b3a;	????	
  bc:	3b 0b       	.word	0x0b3b;	????	
  be:	49 13       	.word	0x1349;	????	
  c0:	02 06       	.word	0x0602;	????	
  c2:	00 00       	.word	0x0000;	????	
  c4:	0d 2e       	jc	$-996    	;abs 0xfce0
  c6:	00 3f       	jmp	$-510    	;abs 0xfec8
  c8:	0c 03       	.word	0x030c;	????	
  ca:	0e 3a       	jl	$-994    	;abs 0xfce8
  cc:	0b 3b       	jl	$-488    	;abs 0xfee4
  ce:	0b 11       	rra	r11		
  d0:	01 12       	push	r1		
  d2:	01 40       	mov	r0,	r1	
  d4:	0a 00       	.word	0x000a;	????	
  d6:	00 0e       	.word	0x0e00;	????	
  d8:	2e 01       	.word	0x012e;	????	
  da:	3f 0c       	.word	0x0c3f;	????	
  dc:	03 0e       	.word	0x0e03;	????	
  de:	3a 0b       	.word	0x0b3a;	????	
  e0:	3b 05       	.word	0x053b;	????	
  e2:	27 0c       	.word	0x0c27;	????	
  e4:	11 01       	.word	0x0111;	????	
  e6:	12 01       	.word	0x0112;	????	
  e8:	40 0a       	.word	0x0a40;	????	
  ea:	01 13       	reti			;return from interupt
  ec:	00 00       	.word	0x0000;	????	
  ee:	0f 05       	.word	0x050f;	????	
  f0:	00 03       	.word	0x0300;	????	
  f2:	08 3a       	jl	$-1006   	;abs 0xfd04
  f4:	0b 3b       	jl	$-488    	;abs 0xff0c
  f6:	05 49       	mov	r9,	r5	
  f8:	13 02       	.word	0x0213;	????	
  fa:	06 00       	.word	0x0006;	????	
  fc:	00 10       	rrc	r0		
  fe:	2e 01       	.word	0x012e;	????	
 100:	3f 0c       	.word	0x0c3f;	????	
 102:	03 0e       	.word	0x0e03;	????	
 104:	3a 0b       	.word	0x0b3a;	????	
 106:	3b 05       	.word	0x053b;	????	
 108:	27 0c       	.word	0x0c27;	????	
 10a:	11 01       	.word	0x0111;	????	
 10c:	12 01       	.word	0x0112;	????	
 10e:	40 06       	.word	0x0640;	????	
 110:	01 13       	reti			;return from interupt
 112:	00 00       	.word	0x0000;	????	
 114:	11 0f       	.word	0x0f11;	????	
 116:	00 0b       	.word	0x0b00;	????	
 118:	0b 49       	mov	r9,	r11	
 11a:	13 00       	.word	0x0013;	????	
 11c:	00 12       	push	r0		
 11e:	2e 01       	.word	0x012e;	????	
 120:	3f 0c       	.word	0x0c3f;	????	
 122:	03 08       	.word	0x0803;	????	
 124:	3a 0b       	.word	0x0b3a;	????	
 126:	3b 05       	.word	0x053b;	????	
 128:	27 0c       	.word	0x0c27;	????	
 12a:	11 01       	.word	0x0111;	????	
 12c:	12 01       	.word	0x0112;	????	
 12e:	40 06       	.word	0x0640;	????	
 130:	01 13       	reti			;return from interupt
 132:	00 00       	.word	0x0000;	????	
 134:	13 2e       	jc	$-984    	;abs 0xfd5c
 136:	00 3f       	jmp	$-510    	;abs 0xff38
 138:	0c 03       	.word	0x030c;	????	
 13a:	0e 3a       	jl	$-994    	;abs 0xfd58
 13c:	0b 3b       	jl	$-488    	;abs 0xff54
 13e:	05 27       	jz	$-500    	;abs 0xff4a
 140:	0c 11       	rra	r12		
 142:	01 12       	push	r1		
 144:	01 40       	mov	r0,	r1	
 146:	06 00       	.word	0x0006;	????	
 148:	00 14       	.word	0x1400;	????	
 14a:	1d 01       	.word	0x011d;	????	
 14c:	31 13       	reti			;return from interupt
 14e:	11 01       	.word	0x0111;	????	
 150:	12 01       	.word	0x0112;	????	
 152:	58 0b       	.word	0x0b58;	????	
 154:	59 05       	.word	0x0559;	????	
 156:	00 00       	.word	0x0000;	????	
 158:	15 05       	.word	0x0515;	????	
 15a:	00 31       	jn	$+514    	;abs 0x35c
 15c:	13 02       	.word	0x0213;	????	
 15e:	06 00       	.word	0x0006;	????	
 160:	00 16       	.word	0x1600;	????	
 162:	2e 00       	.word	0x002e;	????	
 164:	3f 0c       	.word	0x0c3f;	????	
 166:	03 0e       	.word	0x0e03;	????	
 168:	3a 0b       	.word	0x0b3a;	????	
 16a:	3b 0b       	.word	0x0b3b;	????	
 16c:	27 0c       	.word	0x0c27;	????	
 16e:	11 01       	.word	0x0111;	????	
 170:	12 01       	.word	0x0112;	????	
 172:	40 0a       	.word	0x0a40;	????	
 174:	00 00       	.word	0x0000;	????	
 176:	17 2e       	jc	$-976    	;abs 0xfda6
 178:	01 3f       	jmp	$-508    	;abs 0xff7c
 17a:	0c 03       	.word	0x030c;	????	
 17c:	0e 3a       	jl	$-994    	;abs 0xfd9a
 17e:	0b 3b       	jl	$-488    	;abs 0xff96
 180:	0b 27       	jz	$-488    	;abs 0xff98
 182:	0c 49       	mov	r9,	r12	
 184:	13 11       	rra	#1		;r3 As==01
 186:	01 12       	push	r1		
 188:	01 40       	mov	r0,	r1	
 18a:	0a 01       	.word	0x010a;	????	
 18c:	13 00       	.word	0x0013;	????	
 18e:	00 18       	.word	0x1800;	????	
 190:	34 00       	.word	0x0034;	????	
 192:	03 0e       	.word	0x0e03;	????	
 194:	3a 0b       	.word	0x0b3a;	????	
 196:	3b 0b       	.word	0x0b3b;	????	
 198:	49 13       	.word	0x1349;	????	
 19a:	00 00       	.word	0x0000;	????	
 19c:	19 34       	jge	$+52     	;abs 0x1d0
 19e:	00 03       	.word	0x0300;	????	
 1a0:	0e 3a       	jl	$-994    	;abs 0xfdbe
 1a2:	0b 3b       	jl	$-488    	;abs 0xffba
 1a4:	05 87       	sub	r7,	r5	
 1a6:	40 0e       	.word	0x0e40;	????	
 1a8:	49 13       	.word	0x1349;	????	
 1aa:	3f 0c       	.word	0x0c3f;	????	
 1ac:	3c 0c       	.word	0x0c3c;	????	
 1ae:	00 00       	.word	0x0000;	????	
 1b0:	1a 35       	jge	$+566    	;abs 0x3e6
 1b2:	00 49       	br	r9		
 1b4:	13 00       	.word	0x0013;	????	
 1b6:	00 1b       	.word	0x1b00;	????	
 1b8:	26 00       	.word	0x0026;	????	
 1ba:	49 13       	.word	0x1349;	????	
 1bc:	00 00       	.word	0x0000;	????	
 1be:	1c 34       	jge	$+58     	;abs 0x1f8
 1c0:	00 03       	.word	0x0300;	????	
 1c2:	08 3a       	jl	$-1006   	;abs 0xfdd4
 1c4:	0b 3b       	jl	$-488    	;abs 0xffdc
 1c6:	05 87       	sub	r7,	r5	
 1c8:	40 0e       	.word	0x0e40;	????	
 1ca:	49 13       	.word	0x1349;	????	
 1cc:	3f 0c       	.word	0x0c3f;	????	
 1ce:	3c 0c       	.word	0x0c3c;	????	
 1d0:	00 00       	.word	0x0000;	????	
 1d2:	1d 34       	jge	$+60     	;abs 0x20e
 1d4:	00 03       	.word	0x0300;	????	
 1d6:	0e 3a       	jl	$-994    	;abs 0xfdf4
 1d8:	0b 3b       	jl	$-488    	;abs 0xfff0
 1da:	0b 49       	mov	r9,	r11	
 1dc:	13 3f       	jmp	$-472    	;abs 0x4
 1de:	0c 3c       	jmp	$+26     	;abs 0x1f8
 1e0:	0c 00       	.word	0x000c;	????	
 1e2:	00 1e       	.word	0x1e00;	????	
 1e4:	34 00       	.word	0x0034;	????	
 1e6:	03 0e       	.word	0x0e03;	????	
 1e8:	3a 0b       	.word	0x0b3a;	????	
 1ea:	3b 0b       	.word	0x0b3b;	????	
 1ec:	49 13       	.word	0x1349;	????	
 1ee:	3f 0c       	.word	0x0c3f;	????	
 1f0:	02 0a       	.word	0x0a02;	????	
 1f2:	00 00       	.word	0x0000;	????	
 1f4:	00 01       	.word	0x0100;	????	
 1f6:	11 00       	.word	0x0011;	????	
 1f8:	10 06       	.word	0x0610;	????	
 1fa:	11 01       	.word	0x0111;	????	
 1fc:	12 01       	.word	0x0112;	????	
 1fe:	03 08       	.word	0x0803;	????	
 200:	1b 08       	.word	0x081b;	????	
 202:	25 08       	.word	0x0825;	????	
 204:	13 05       	.word	0x0513;	????	
 206:	00 00       	.word	0x0000;	????	
 208:	00 01       	.word	0x0100;	????	
 20a:	11 00       	.word	0x0011;	????	
 20c:	10 06       	.word	0x0610;	????	
 20e:	11 01       	.word	0x0111;	????	
 210:	12 01       	.word	0x0112;	????	
 212:	03 08       	.word	0x0803;	????	
 214:	1b 08       	.word	0x081b;	????	
 216:	25 08       	.word	0x0825;	????	
 218:	13 05       	.word	0x0513;	????	
 21a:	00 00       	.word	0x0000;	????	
 21c:	00 01       	.word	0x0100;	????	
 21e:	11 00       	.word	0x0011;	????	
 220:	10 06       	.word	0x0610;	????	
 222:	11 01       	.word	0x0111;	????	
 224:	12 01       	.word	0x0112;	????	
 226:	03 08       	.word	0x0803;	????	
 228:	1b 08       	.word	0x081b;	????	
 22a:	25 08       	.word	0x0825;	????	
 22c:	13 05       	.word	0x0513;	????	
 22e:	00 00       	.word	0x0000;	????	
 230:	00 01       	.word	0x0100;	????	
 232:	11 00       	.word	0x0011;	????	
 234:	10 06       	.word	0x0610;	????	
 236:	11 01       	.word	0x0111;	????	
 238:	12 01       	.word	0x0112;	????	
 23a:	03 08       	.word	0x0803;	????	
 23c:	1b 08       	.word	0x081b;	????	
 23e:	25 08       	.word	0x0825;	????	
 240:	13 05       	.word	0x0513;	????	
 242:	00 00       	.word	0x0000;	????	
 244:	00 01       	.word	0x0100;	????	
 246:	11 00       	.word	0x0011;	????	
 248:	10 06       	.word	0x0610;	????	
 24a:	11 01       	.word	0x0111;	????	
 24c:	12 01       	.word	0x0112;	????	
 24e:	03 08       	.word	0x0803;	????	
 250:	1b 08       	.word	0x081b;	????	
 252:	25 08       	.word	0x0825;	????	
 254:	13 05       	.word	0x0513;	????	
 256:	00 00       	.word	0x0000;	????	
 258:	00 01       	.word	0x0100;	????	
 25a:	11 00       	.word	0x0011;	????	
 25c:	10 06       	.word	0x0610;	????	
 25e:	11 01       	.word	0x0111;	????	
 260:	12 01       	.word	0x0112;	????	
 262:	03 08       	.word	0x0803;	????	
 264:	1b 08       	.word	0x081b;	????	
 266:	25 08       	.word	0x0825;	????	
 268:	13 05       	.word	0x0513;	????	
 26a:	00 00       	.word	0x0000;	????	
	...

Disassembly of section .debug_line:

00000000 <.debug_line>:
   0:	af 01       	.word	0x01af;	????	
   2:	00 00       	.word	0x0000;	????	
   4:	02 00       	.word	0x0002;	????	
   6:	63 00       	.word	0x0063;	????	
   8:	00 00       	.word	0x0000;	????	
   a:	01 01       	.word	0x0101;	????	
   c:	fb 0e       	.word	0x0efb;	????	
   e:	0d 00       	.word	0x000d;	????	
  10:	01 01       	.word	0x0101;	????	
  12:	01 01       	.word	0x0101;	????	
  14:	00 00       	.word	0x0000;	????	
  16:	00 01       	.word	0x0100;	????	
  18:	00 00       	.word	0x0000;	????	
  1a:	01 2f       	jc	$-508    	;abs 0xfe1e
  1c:	75 73       	subc.b	#-1,	r5	;r3 As==11
  1e:	72 2f       	jc	$-282    	;abs 0xff04
  20:	6c 69       	addc.b	@r9,	r12	
  22:	62 2f       	jc	$-314    	;abs 0xfee8
  24:	67 63       	addc.b	#2,	r7	;r3 As==10
  26:	63 2f       	jc	$-312    	;abs 0xfeee
  28:	6d 73       	subc.b	#2,	r13	;r3 As==10
  2a:	70 34       	jge	$+226    	;abs 0x10c
  2c:	33 30       	jn	$+104    	;abs 0x94
  2e:	2f 34       	jge	$+96     	;abs 0x8e
  30:	2e 35       	jge	$+606    	;abs 0x28e
  32:	2e 33       	jn	$-418    	;abs 0xfe90
  34:	2f 2e       	jc	$-928    	;abs 0xfc94
  36:	2e 2f       	jc	$-418    	;abs 0xfe94
  38:	2e 2e       	jc	$-930    	;abs 0xfc96
  3a:	2f 2e       	jc	$-928    	;abs 0xfc9a
  3c:	2e 2f       	jc	$-418    	;abs 0xfe9a
  3e:	2e 2e       	jc	$-930    	;abs 0xfc9c
  40:	2f 6d       	addc	@r13,	r15	
  42:	73 70       	.word	0x7073;	????	Illegal as 2-op instr
  44:	34 33       	jn	$-406    	;abs 0xfeae
  46:	30 2f       	jc	$-414    	;abs 0xfea8
  48:	69 6e       	addc.b	@r14,	r9	
  4a:	63 6c       	.word	0x6c63;	????	Illegal as 2-op instr
  4c:	75 64       	addc.b	@r4+,	r5	
  4e:	65 00       	.word	0x0065;	????	
  50:	00 6d       	addc	r13,	r0	
  52:	61 69       	addc.b	@r9,	r1	
  54:	6e 2e       	jc	$-802    	;abs 0xfd32
  56:	63 00       	.word	0x0063;	????	
  58:	00 00       	.word	0x0000;	????	
  5a:	00 6d       	addc	r13,	r0	
  5c:	73 70       	.word	0x7073;	????	Illegal as 2-op instr
  5e:	34 33       	jn	$-406    	;abs 0xfec8
  60:	30 66       	addc	@r6+,	r0	
  62:	32 30       	jn	$+102    	;abs 0xc8
  64:	31 32       	jn	$-924    	;abs 0xfcc8
  66:	2e 68       	addc	@r8,	r14	
  68:	00 01       	.word	0x0100;	????	
  6a:	00 00       	.word	0x0000;	????	
  6c:	00 00       	.word	0x0000;	????	
  6e:	03 02       	.word	0x0203;	????	
  70:	d2 f8 03 b5 	and.b	-19197(r8),&0x0101	;0xb503(r8)
  74:	01 01 
  76:	31 4b       	mov	@r11+,	r1	
  78:	69 4b       	mov.b	@r11,	r9	
  7a:	84 67 67 a2 	addc	r7,	-23961(r4);0xa267(r4)
  7e:	08 3d       	jmp	$+530    	;abs 0x290
  80:	84 67 67 03 	addc	r7,	871(r4)	;0x0367(r4)
  84:	7a 82       	sub.b	#8,	r10	;r2 As==11
  86:	03 09       	.word	0x0903;	????	
  88:	4a 4b       	mov.b	r11,	r10	
  8a:	68 4c       	mov.b	@r12,	r8	
  8c:	66 4c       	mov.b	@r12,	r6	
  8e:	35 2b       	jnc	$-404    	;abs 0xfefa
  90:	67 67       	addc.b	@r7,	r7	
  92:	67 08       	.word	0x0867;	????	
  94:	1c 51 4b 69 	add	26955(r1),r12	;0x694b(r1)
  98:	68 13       	.word	0x1368;	????	
  9a:	67 67       	addc.b	@r7,	r7	
  9c:	67 67       	addc.b	@r7,	r7	
  9e:	03 34       	jge	$+8      	;abs 0xa6
  a0:	2e 15       	.word	0x152e;	????	
  a2:	4b 68       	addc.b	r8,	r11	
  a4:	67 68       	addc.b	@r8,	r7	
  a6:	03 78       	.word	0x7803;	????	Illegal as 2-op instr
  a8:	66 03       	.word	0x0366;	????	
  aa:	0a 2e       	jc	$-1002   	;abs 0xfcc0
  ac:	a0 00       	.word	0x00a0;	????	
  ae:	02 04       	.word	0x0402;	????	
  b0:	01 67       	addc	r7,	r1	
  b2:	9f 30       	jn	$+320    	;abs 0x1f2
  b4:	4b 67       	addc.b	r7,	r11	
  b6:	65 68       	addc.b	@r8,	r5	
  b8:	4c 67       	addc.b	r7,	r12	
  ba:	83 83       	sub	#0,	#1	;r3 As==00, r3 As==01
  bc:	00 02       	.word	0x0200;	????	
  be:	04 01       	.word	0x0104;	????	
  c0:	06 08       	.word	0x0806;	????	
  c2:	74 00       	.word	0x0074;	????	
  c4:	02 04       	.word	0x0402;	????	
  c6:	02 82       	sub	r2,	r2	
  c8:	00 02       	.word	0x0200;	????	
  ca:	04 03       	.word	0x0304;	????	
  cc:	66 00       	.word	0x0066;	????	
  ce:	02 04       	.word	0x0402;	????	
  d0:	03 06       	.word	0x0603;	????	
  d2:	4b 00       	.word	0x004b;	????	
  d4:	02 04       	.word	0x0402;	????	
  d6:	01 06       	.word	0x0601;	????	
  d8:	9e 00       	.word	0x009e;	????	
  da:	02 04       	.word	0x0402;	????	
  dc:	02 ba       	bit	r10,	r2	
  de:	00 02       	.word	0x0200;	????	
  e0:	04 03       	.word	0x0304;	????	
  e2:	9e 00       	.word	0x009e;	????	
  e4:	02 04       	.word	0x0402;	????	
  e6:	03 06       	.word	0x0603;	????	
  e8:	4b 03       	.word	0x034b;	????	
  ea:	85 7e 02 d2 	subc	r14,	-11774(r5);0xd202(r5)
  ee:	03 01       	.word	0x0103;	????	
  f0:	31 67       	addc	@r7+,	r1	
  f2:	bb 9f bb bb 	cmp	@r15+,	-17477(r11);0xbbbb(r11)
  f6:	68 83       	decd.b	r8		
  f8:	67 bb       	bit.b	@r11,	r7	
  fa:	67 4b       	mov.b	@r11,	r7	
  fc:	84 67 bb bb 	addc	r7,	-17477(r4);0xbbbb(r4)
 100:	69 83       	decd.b	r9		
 102:	67 bb       	bit.b	@r11,	r7	
 104:	83 4b       	mov	r11,	#1	;r3 As==01
 106:	83 4b       	mov	r11,	#1	;r3 As==01
 108:	a0 83 9f a0 	decd	0xa09f		;PC rel. 0xfa1ab
 10c:	83 67       	addc	r7,	#1	;r3 As==01
 10e:	a0 83 4b a0 	decd	0xa04b		;PC rel. 0xfa15d
 112:	84 83 67 bb 	sub	#0,	-17561(r4);r3 As==00, 0xbb67(r4)
 116:	83 4b       	mov	r11,	#1	;r3 As==01
 118:	83 67       	addc	r7,	#1	;r3 As==01
 11a:	9f 67 9f 67 	addc	26527(r7),-31584(r15);0x679f(r7), 0x84a0(r15)
 11e:	a0 84 
 120:	83 67       	addc	r7,	#1	;r3 As==01
 122:	bb 67 4b 84 	addc	@r7+,	-31669(r11);0x844b(r11)
 126:	83 67       	addc	r7,	#1	;r3 As==01
 128:	bb 67 4b 84 	addc	@r7+,	-31669(r11);0x844b(r11)
 12c:	83 67       	addc	r7,	#1	;r3 As==01
 12e:	bb 83 4b 83 	sub	#-1,	-31925(r11);r3 As==11, 0x834b(r11)
 132:	4b a0       	dadd.b	r0,	r11	
 134:	83 9f       	cmp	r15,	#1	;r3 As==01
 136:	a0 03       	.word	0x03a0;	????	
 138:	0a 82       	sub	r2,	r10	
 13a:	83 67       	addc	r7,	#1	;r3 As==01
 13c:	bb 67 4b 83 	addc	@r7+,	-31925(r11);0x834b(r11)
 140:	83 67       	addc	r7,	#1	;r3 As==01
 142:	9f 67 4b 83 	addc	-31925(r7),26499(r15);0x834b(r7), 0x6783(r15)
 146:	83 67 
 148:	bb 67 4b 83 	addc	@r7+,	-31925(r11);0x834b(r11)
 14c:	03 88       	.word	0x8803;	????	Illegal as 2-op instr
 14e:	01 4a       	mov	r10,	r1	
 150:	67 67       	addc.b	@r7,	r7	
 152:	83 67       	addc	r7,	#1	;r3 As==01
 154:	85 67 9f 67 	addc	r7,	26527(r5);0x679f(r5)
 158:	83 68       	addc	r8,	#1	;r3 As==01
 15a:	85 1a       	.word	0x1a85;	????	
 15c:	00 02       	.word	0x0200;	????	
 15e:	04 01       	.word	0x0104;	????	
 160:	06 4a       	mov	r10,	r6	
 162:	00 02       	.word	0x0200;	????	
 164:	04 01       	.word	0x0104;	????	
 166:	06 61       	addc	r1,	r6	
 168:	67 03       	.word	0x0367;	????	
 16a:	ea 7d 2e 13 	subc.b	@r13,	4910(r10);0x132e(r10)
 16e:	bb 83 bb 03 	sub	#-1,	955(r11);r3 As==11, 0x03bb(r11)
 172:	76 2e       	jc	$-786    	;abs 0xfe60
 174:	13 bb       	.word	0xbb13;	????	Illegal as 2-op instr
 176:	83 bb       	bit	r11,	#1	;r3 As==01
 178:	02 0f       	.word	0x0f02;	????	
 17a:	00 01       	.word	0x0100;	????	
 17c:	01 00       	.word	0x0001;	????	
 17e:	03 02       	.word	0x0203;	????	
 180:	38 f8       	and	@r8+,	r8	
 182:	03 eb       	.word	0xeb03;	????	Illegal as 2-op instr
 184:	01 01       	.word	0x0101;	????	
 186:	14 68 67 68 	addc	26727(r8),r4	;0x6867(r8)
 18a:	67 67       	addc.b	@r7,	r7	
 18c:	67 67       	addc.b	@r7,	r7	
 18e:	68 4b       	mov.b	@r11,	r8	
 190:	89 67 67 4b 	addc	r7,	19303(r9);0x4b67(r9)
 194:	83 30       	jn	$+264    	;abs 0x29c
 196:	83 4b       	mov	r11,	#1	;r3 As==01
 198:	4b 84       	sub.b	r4,	r11	
 19a:	00 02       	.word	0x0200;	????	
 19c:	04 01       	.word	0x0104;	????	
 19e:	4e 00       	.word	0x004e;	????	
 1a0:	02 04       	.word	0x0402;	????	
 1a2:	01 67       	addc	r7,	r1	
 1a4:	00 02       	.word	0x0200;	????	
 1a6:	04 01       	.word	0x0104;	????	
 1a8:	bb 00       	.word	0x00bb;	????	
 1aa:	02 04       	.word	0x0402;	????	
 1ac:	01 67       	addc	r7,	r1	
 1ae:	02 06       	.word	0x0602;	????	
 1b0:	00 01       	.word	0x0100;	????	
 1b2:	01 7e       	subc	r14,	r1	
 1b4:	00 00       	.word	0x0000;	????	
 1b6:	00 02       	.word	0x0200;	????	
 1b8:	00 6a       	addc	r10,	r0	
 1ba:	00 00       	.word	0x0000;	????	
 1bc:	00 01       	.word	0x0100;	????	
 1be:	01 fb       	and	r11,	r1	
 1c0:	0e 0d       	.word	0x0d0e;	????	
 1c2:	00 01       	.word	0x0100;	????	
 1c4:	01 01       	.word	0x0101;	????	
 1c6:	01 00       	.word	0x0001;	????	
 1c8:	00 00       	.word	0x0000;	????	
 1ca:	01 00       	.word	0x0001;	????	
 1cc:	00 01       	.word	0x0100;	????	
 1ce:	2f 62       	addc	#4,	r15	;r2 As==10
 1d0:	75 69       	addc.b	@r9+,	r5	
 1d2:	6c 64       	addc.b	@r4,	r12	
 1d4:	2f 62       	addc	#4,	r15	;r2 As==10
 1d6:	75 69       	addc.b	@r9+,	r5	
 1d8:	6c 64       	addc.b	@r4,	r12	
 1da:	64 2f       	jc	$-310    	;abs 0xa4
 1dc:	67 63       	addc.b	#2,	r7	;r3 As==10
 1de:	63 2d       	jc	$+712    	;abs 0x4a6
 1e0:	6d 73       	subc.b	#2,	r13	;r3 As==10
 1e2:	70 34       	jge	$+226    	;abs 0x2c4
 1e4:	33 30       	jn	$+104    	;abs 0x24c
 1e6:	2d 34       	jge	$+92     	;abs 0x242
 1e8:	2e 35       	jge	$+606    	;abs 0x446
 1ea:	2e 33       	jn	$-418    	;abs 0x48
 1ec:	7e 6d       	addc.b	@r13+,	r14	
 1ee:	73 70       	.word	0x7073;	????	Illegal as 2-op instr
 1f0:	67 63       	addc.b	#2,	r7	;r3 As==10
 1f2:	63 2d       	jc	$+712    	;abs 0x4ba
 1f4:	32 30       	jn	$+102    	;abs 0x25a
 1f6:	31 31       	jn	$+612    	;abs 0x45a
 1f8:	30 37       	jge	$-414    	;abs 0x5a
 1fa:	31 36       	jge	$-924    	;abs 0xfe5e
 1fc:	2f 2e       	jc	$-928    	;abs 0xfe5c
 1fe:	2f 67       	addc	@r7,	r15	
 200:	63 63       	.word	0x6363;	????	Illegal as 2-op instr
 202:	2d 34       	jge	$+92     	;abs 0x25e
 204:	2e 35       	jge	$+606    	;abs 0x462
 206:	2e 33       	jn	$-418    	;abs 0x64
 208:	2f 67       	addc	@r7,	r15	
 20a:	63 63       	.word	0x6363;	????	Illegal as 2-op instr
 20c:	2f 63       	addc	#2,	r15	;r3 As==10
 20e:	6f 6e       	addc.b	@r14,	r15	
 210:	66 69       	addc.b	@r9,	r6	
 212:	67 2f       	jc	$-304    	;abs 0xe2
 214:	6d 73       	subc.b	#2,	r13	;r3 As==10
 216:	70 34       	jge	$+226    	;abs 0x2f8
 218:	33 30       	jn	$+104    	;abs 0x280
 21a:	00 00       	.word	0x0000;	????	
 21c:	63 72       	.word	0x7263;	????	Illegal as 2-op instr
 21e:	74 30       	jn	$+234    	;abs 0x308
 220:	2e 53       	incd	r14		
 222:	00 01       	.word	0x0100;	????	
 224:	00 00       	.word	0x0000;	????	
 226:	00 00       	.word	0x0000;	????	
 228:	03 02       	.word	0x0203;	????	
 22a:	00 f8       	and	r8,	r0	
 22c:	03 f5       	.word	0xf503;	????	Illegal as 2-op instr
 22e:	00 01       	.word	0x0100;	????	
 230:	02 04       	.word	0x0402;	????	
 232:	00 01       	.word	0x0100;	????	
 234:	01 80       	sub	r0,	r1	
 236:	00 00       	.word	0x0000;	????	
 238:	00 02       	.word	0x0200;	????	
 23a:	00 6a       	addc	r10,	r0	
 23c:	00 00       	.word	0x0000;	????	
 23e:	00 01       	.word	0x0100;	????	
 240:	01 fb       	and	r11,	r1	
 242:	0e 0d       	.word	0x0d0e;	????	
 244:	00 01       	.word	0x0100;	????	
 246:	01 01       	.word	0x0101;	????	
 248:	01 00       	.word	0x0001;	????	
 24a:	00 00       	.word	0x0000;	????	
 24c:	01 00       	.word	0x0001;	????	
 24e:	00 01       	.word	0x0100;	????	
 250:	2f 62       	addc	#4,	r15	;r2 As==10
 252:	75 69       	addc.b	@r9+,	r5	
 254:	6c 64       	addc.b	@r4,	r12	
 256:	2f 62       	addc	#4,	r15	;r2 As==10
 258:	75 69       	addc.b	@r9+,	r5	
 25a:	6c 64       	addc.b	@r4,	r12	
 25c:	64 2f       	jc	$-310    	;abs 0x126
 25e:	67 63       	addc.b	#2,	r7	;r3 As==10
 260:	63 2d       	jc	$+712    	;abs 0x528
 262:	6d 73       	subc.b	#2,	r13	;r3 As==10
 264:	70 34       	jge	$+226    	;abs 0x346
 266:	33 30       	jn	$+104    	;abs 0x2ce
 268:	2d 34       	jge	$+92     	;abs 0x2c4
 26a:	2e 35       	jge	$+606    	;abs 0x4c8
 26c:	2e 33       	jn	$-418    	;abs 0xca
 26e:	7e 6d       	addc.b	@r13+,	r14	
 270:	73 70       	.word	0x7073;	????	Illegal as 2-op instr
 272:	67 63       	addc.b	#2,	r7	;r3 As==10
 274:	63 2d       	jc	$+712    	;abs 0x53c
 276:	32 30       	jn	$+102    	;abs 0x2dc
 278:	31 31       	jn	$+612    	;abs 0x4dc
 27a:	30 37       	jge	$-414    	;abs 0xdc
 27c:	31 36       	jge	$-924    	;abs 0xfee0
 27e:	2f 2e       	jc	$-928    	;abs 0xfede
 280:	2f 67       	addc	@r7,	r15	
 282:	63 63       	.word	0x6363;	????	Illegal as 2-op instr
 284:	2d 34       	jge	$+92     	;abs 0x2e0
 286:	2e 35       	jge	$+606    	;abs 0x4e4
 288:	2e 33       	jn	$-418    	;abs 0xe6
 28a:	2f 67       	addc	@r7,	r15	
 28c:	63 63       	.word	0x6363;	????	Illegal as 2-op instr
 28e:	2f 63       	addc	#2,	r15	;r3 As==10
 290:	6f 6e       	addc.b	@r14,	r15	
 292:	66 69       	addc.b	@r9,	r6	
 294:	67 2f       	jc	$-304    	;abs 0x164
 296:	6d 73       	subc.b	#2,	r13	;r3 As==10
 298:	70 34       	jge	$+226    	;abs 0x37a
 29a:	33 30       	jn	$+104    	;abs 0x302
 29c:	00 00       	.word	0x0000;	????	
 29e:	63 72       	.word	0x7263;	????	Illegal as 2-op instr
 2a0:	74 30       	jn	$+234    	;abs 0x38a
 2a2:	2e 53       	incd	r14		
 2a4:	00 01       	.word	0x0100;	????	
 2a6:	00 00       	.word	0x0000;	????	
 2a8:	00 00       	.word	0x0000;	????	
 2aa:	03 02       	.word	0x0203;	????	
 2ac:	04 f8       	and	r8,	r4	
 2ae:	03 8a       	.word	0x8a03;	????	Illegal as 2-op instr
 2b0:	01 01       	.word	0x0101;	????	
 2b2:	4b 2f       	jc	$-360    	;abs 0x14a
 2b4:	02 04       	.word	0x0402;	????	
 2b6:	00 01       	.word	0x0100;	????	
 2b8:	01 84       	sub	r4,	r1	
 2ba:	00 00       	.word	0x0000;	????	
 2bc:	00 02       	.word	0x0200;	????	
 2be:	00 6a       	addc	r10,	r0	
 2c0:	00 00       	.word	0x0000;	????	
 2c2:	00 01       	.word	0x0100;	????	
 2c4:	01 fb       	and	r11,	r1	
 2c6:	0e 0d       	.word	0x0d0e;	????	
 2c8:	00 01       	.word	0x0100;	????	
 2ca:	01 01       	.word	0x0101;	????	
 2cc:	01 00       	.word	0x0001;	????	
 2ce:	00 00       	.word	0x0000;	????	
 2d0:	01 00       	.word	0x0001;	????	
 2d2:	00 01       	.word	0x0100;	????	
 2d4:	2f 62       	addc	#4,	r15	;r2 As==10
 2d6:	75 69       	addc.b	@r9+,	r5	
 2d8:	6c 64       	addc.b	@r4,	r12	
 2da:	2f 62       	addc	#4,	r15	;r2 As==10
 2dc:	75 69       	addc.b	@r9+,	r5	
 2de:	6c 64       	addc.b	@r4,	r12	
 2e0:	64 2f       	jc	$-310    	;abs 0x1aa
 2e2:	67 63       	addc.b	#2,	r7	;r3 As==10
 2e4:	63 2d       	jc	$+712    	;abs 0x5ac
 2e6:	6d 73       	subc.b	#2,	r13	;r3 As==10
 2e8:	70 34       	jge	$+226    	;abs 0x3ca
 2ea:	33 30       	jn	$+104    	;abs 0x352
 2ec:	2d 34       	jge	$+92     	;abs 0x348
 2ee:	2e 35       	jge	$+606    	;abs 0x54c
 2f0:	2e 33       	jn	$-418    	;abs 0x14e
 2f2:	7e 6d       	addc.b	@r13+,	r14	
 2f4:	73 70       	.word	0x7073;	????	Illegal as 2-op instr
 2f6:	67 63       	addc.b	#2,	r7	;r3 As==10
 2f8:	63 2d       	jc	$+712    	;abs 0x5c0
 2fa:	32 30       	jn	$+102    	;abs 0x360
 2fc:	31 31       	jn	$+612    	;abs 0x560
 2fe:	30 37       	jge	$-414    	;abs 0x160
 300:	31 36       	jge	$-924    	;abs 0xff64
 302:	2f 2e       	jc	$-928    	;abs 0xff62
 304:	2f 67       	addc	@r7,	r15	
 306:	63 63       	.word	0x6363;	????	Illegal as 2-op instr
 308:	2d 34       	jge	$+92     	;abs 0x364
 30a:	2e 35       	jge	$+606    	;abs 0x568
 30c:	2e 33       	jn	$-418    	;abs 0x16a
 30e:	2f 67       	addc	@r7,	r15	
 310:	63 63       	.word	0x6363;	????	Illegal as 2-op instr
 312:	2f 63       	addc	#2,	r15	;r3 As==10
 314:	6f 6e       	addc.b	@r14,	r15	
 316:	66 69       	addc.b	@r9,	r6	
 318:	67 2f       	jc	$-304    	;abs 0x1e8
 31a:	6d 73       	subc.b	#2,	r13	;r3 As==10
 31c:	70 34       	jge	$+226    	;abs 0x3fe
 31e:	33 30       	jn	$+104    	;abs 0x386
 320:	00 00       	.word	0x0000;	????	
 322:	63 72       	.word	0x7263;	????	Illegal as 2-op instr
 324:	74 30       	jn	$+234    	;abs 0x40e
 326:	2e 53       	incd	r14		
 328:	00 01       	.word	0x0100;	????	
 32a:	00 00       	.word	0x0000;	????	
 32c:	00 00       	.word	0x0000;	????	
 32e:	03 02       	.word	0x0203;	????	
 330:	0e f8       	and	r8,	r14	
 332:	03 9f       	.word	0x9f03;	????	Illegal as 2-op instr
 334:	01 01       	.word	0x0101;	????	
 336:	4b 4b       	mov.b	r11,	r11	
 338:	14 4b 2f 83 	mov	-31953(r11),r4	;0x832f(r11)
 33c:	02 00       	.word	0x0002;	????	
 33e:	00 01       	.word	0x0100;	????	
 340:	01 84       	sub	r4,	r1	
 342:	00 00       	.word	0x0000;	????	
 344:	00 02       	.word	0x0200;	????	
 346:	00 6a       	addc	r10,	r0	
 348:	00 00       	.word	0x0000;	????	
 34a:	00 01       	.word	0x0100;	????	
 34c:	01 fb       	and	r11,	r1	
 34e:	0e 0d       	.word	0x0d0e;	????	
 350:	00 01       	.word	0x0100;	????	
 352:	01 01       	.word	0x0101;	????	
 354:	01 00       	.word	0x0001;	????	
 356:	00 00       	.word	0x0000;	????	
 358:	01 00       	.word	0x0001;	????	
 35a:	00 01       	.word	0x0100;	????	
 35c:	2f 62       	addc	#4,	r15	;r2 As==10
 35e:	75 69       	addc.b	@r9+,	r5	
 360:	6c 64       	addc.b	@r4,	r12	
 362:	2f 62       	addc	#4,	r15	;r2 As==10
 364:	75 69       	addc.b	@r9+,	r5	
 366:	6c 64       	addc.b	@r4,	r12	
 368:	64 2f       	jc	$-310    	;abs 0x232
 36a:	67 63       	addc.b	#2,	r7	;r3 As==10
 36c:	63 2d       	jc	$+712    	;abs 0x634
 36e:	6d 73       	subc.b	#2,	r13	;r3 As==10
 370:	70 34       	jge	$+226    	;abs 0x452
 372:	33 30       	jn	$+104    	;abs 0x3da
 374:	2d 34       	jge	$+92     	;abs 0x3d0
 376:	2e 35       	jge	$+606    	;abs 0x5d4
 378:	2e 33       	jn	$-418    	;abs 0x1d6
 37a:	7e 6d       	addc.b	@r13+,	r14	
 37c:	73 70       	.word	0x7073;	????	Illegal as 2-op instr
 37e:	67 63       	addc.b	#2,	r7	;r3 As==10
 380:	63 2d       	jc	$+712    	;abs 0x648
 382:	32 30       	jn	$+102    	;abs 0x3e8
 384:	31 31       	jn	$+612    	;abs 0x5e8
 386:	30 37       	jge	$-414    	;abs 0x1e8
 388:	31 36       	jge	$-924    	;abs 0xffec
 38a:	2f 2e       	jc	$-928    	;abs 0xffea
 38c:	2f 67       	addc	@r7,	r15	
 38e:	63 63       	.word	0x6363;	????	Illegal as 2-op instr
 390:	2d 34       	jge	$+92     	;abs 0x3ec
 392:	2e 35       	jge	$+606    	;abs 0x5f0
 394:	2e 33       	jn	$-418    	;abs 0x1f2
 396:	2f 67       	addc	@r7,	r15	
 398:	63 63       	.word	0x6363;	????	Illegal as 2-op instr
 39a:	2f 63       	addc	#2,	r15	;r3 As==10
 39c:	6f 6e       	addc.b	@r14,	r15	
 39e:	66 69       	addc.b	@r9,	r6	
 3a0:	67 2f       	jc	$-304    	;abs 0x270
 3a2:	6d 73       	subc.b	#2,	r13	;r3 As==10
 3a4:	70 34       	jge	$+226    	;abs 0x486
 3a6:	33 30       	jn	$+104    	;abs 0x40e
 3a8:	00 00       	.word	0x0000;	????	
 3aa:	63 72       	.word	0x7263;	????	Illegal as 2-op instr
 3ac:	74 30       	jn	$+234    	;abs 0x496
 3ae:	2e 53       	incd	r14		
 3b0:	00 01       	.word	0x0100;	????	
 3b2:	00 00       	.word	0x0000;	????	
 3b4:	00 00       	.word	0x0000;	????	
 3b6:	03 02       	.word	0x0203;	????	
 3b8:	24 f8       	and	@r8,	r4	
 3ba:	03 b9       	.word	0xb903;	????	Illegal as 2-op instr
 3bc:	01 01       	.word	0x0101;	????	
 3be:	4b 4b       	mov.b	r11,	r11	
 3c0:	14 4b 2f 67 	mov	26415(r11),r4	;0x672f(r11)
 3c4:	02 00       	.word	0x0002;	????	
 3c6:	00 01       	.word	0x0100;	????	
 3c8:	01 7f       	subc	r15,	r1	
 3ca:	00 00       	.word	0x0000;	????	
 3cc:	00 02       	.word	0x0200;	????	
 3ce:	00 6a       	addc	r10,	r0	
 3d0:	00 00       	.word	0x0000;	????	
 3d2:	00 01       	.word	0x0100;	????	
 3d4:	01 fb       	and	r11,	r1	
 3d6:	0e 0d       	.word	0x0d0e;	????	
 3d8:	00 01       	.word	0x0100;	????	
 3da:	01 01       	.word	0x0101;	????	
 3dc:	01 00       	.word	0x0001;	????	
 3de:	00 00       	.word	0x0000;	????	
 3e0:	01 00       	.word	0x0001;	????	
 3e2:	00 01       	.word	0x0100;	????	
 3e4:	2f 62       	addc	#4,	r15	;r2 As==10
 3e6:	75 69       	addc.b	@r9+,	r5	
 3e8:	6c 64       	addc.b	@r4,	r12	
 3ea:	2f 62       	addc	#4,	r15	;r2 As==10
 3ec:	75 69       	addc.b	@r9+,	r5	
 3ee:	6c 64       	addc.b	@r4,	r12	
 3f0:	64 2f       	jc	$-310    	;abs 0x2ba
 3f2:	67 63       	addc.b	#2,	r7	;r3 As==10
 3f4:	63 2d       	jc	$+712    	;abs 0x6bc
 3f6:	6d 73       	subc.b	#2,	r13	;r3 As==10
 3f8:	70 34       	jge	$+226    	;abs 0x4da
 3fa:	33 30       	jn	$+104    	;abs 0x462
 3fc:	2d 34       	jge	$+92     	;abs 0x458
 3fe:	2e 35       	jge	$+606    	;abs 0x65c
 400:	2e 33       	jn	$-418    	;abs 0x25e
 402:	7e 6d       	addc.b	@r13+,	r14	
 404:	73 70       	.word	0x7073;	????	Illegal as 2-op instr
 406:	67 63       	addc.b	#2,	r7	;r3 As==10
 408:	63 2d       	jc	$+712    	;abs 0x6d0
 40a:	32 30       	jn	$+102    	;abs 0x470
 40c:	31 31       	jn	$+612    	;abs 0x670
 40e:	30 37       	jge	$-414    	;abs 0x270
 410:	31 36       	jge	$-924    	;abs 0x74
 412:	2f 2e       	jc	$-928    	;abs 0x72
 414:	2f 67       	addc	@r7,	r15	
 416:	63 63       	.word	0x6363;	????	Illegal as 2-op instr
 418:	2d 34       	jge	$+92     	;abs 0x474
 41a:	2e 35       	jge	$+606    	;abs 0x678
 41c:	2e 33       	jn	$-418    	;abs 0x27a
 41e:	2f 67       	addc	@r7,	r15	
 420:	63 63       	.word	0x6363;	????	Illegal as 2-op instr
 422:	2f 63       	addc	#2,	r15	;r3 As==10
 424:	6f 6e       	addc.b	@r14,	r15	
 426:	66 69       	addc.b	@r9,	r6	
 428:	67 2f       	jc	$-304    	;abs 0x2f8
 42a:	6d 73       	subc.b	#2,	r13	;r3 As==10
 42c:	70 34       	jge	$+226    	;abs 0x50e
 42e:	33 30       	jn	$+104    	;abs 0x496
 430:	00 00       	.word	0x0000;	????	
 432:	63 72       	.word	0x7263;	????	Illegal as 2-op instr
 434:	74 30       	jn	$+234    	;abs 0x51e
 436:	2e 53       	incd	r14		
 438:	00 01       	.word	0x0100;	????	
 43a:	00 00       	.word	0x0000;	????	
 43c:	00 00       	.word	0x0000;	????	
 43e:	03 02       	.word	0x0203;	????	
 440:	c8 f8 03 e1 	and.b	r8,	-7933(r8);0xe103(r8)
 444:	01 01       	.word	0x0101;	????	
 446:	67 02       	.word	0x0267;	????	
 448:	00 00       	.word	0x0000;	????	
 44a:	01 01       	.word	0x0101;	????	
 44c:	7e 00       	.word	0x007e;	????	
 44e:	00 00       	.word	0x0000;	????	
 450:	02 00       	.word	0x0002;	????	
 452:	6a 00       	.word	0x006a;	????	
 454:	00 00       	.word	0x0000;	????	
 456:	01 01       	.word	0x0101;	????	
 458:	fb 0e       	.word	0x0efb;	????	
 45a:	0d 00       	.word	0x000d;	????	
 45c:	01 01       	.word	0x0101;	????	
 45e:	01 01       	.word	0x0101;	????	
 460:	00 00       	.word	0x0000;	????	
 462:	00 01       	.word	0x0100;	????	
 464:	00 00       	.word	0x0000;	????	
 466:	01 2f       	jc	$-508    	;abs 0x26a
 468:	62 75       	subc.b	@r5,	r2	
 46a:	69 6c       	addc.b	@r12,	r9	
 46c:	64 2f       	jc	$-310    	;abs 0x336
 46e:	62 75       	subc.b	@r5,	r2	
 470:	69 6c       	addc.b	@r12,	r9	
 472:	64 64       	addc.b	@r4,	r4	
 474:	2f 67       	addc	@r7,	r15	
 476:	63 63       	.word	0x6363;	????	Illegal as 2-op instr
 478:	2d 6d       	addc	@r13,	r13	
 47a:	73 70       	.word	0x7073;	????	Illegal as 2-op instr
 47c:	34 33       	jn	$-406    	;abs 0x2e6
 47e:	30 2d       	jc	$+610    	;abs 0x6e0
 480:	34 2e       	jc	$-918    	;abs 0xea
 482:	35 2e       	jc	$-916    	;abs 0xee
 484:	33 7e       	.word	0x7e33;	????	Illegal as 2-op instr
 486:	6d 73       	subc.b	#2,	r13	;r3 As==10
 488:	70 67       	addc.b	@r7+,	r0	
 48a:	63 63       	.word	0x6363;	????	Illegal as 2-op instr
 48c:	2d 32       	jn	$-932    	;abs 0xe8
 48e:	30 31       	jn	$+610    	;abs 0x6f0
 490:	31 30       	jn	$+100    	;abs 0x4f4
 492:	37 31       	jn	$+624    	;abs 0x702
 494:	36 2f       	jc	$-402    	;abs 0x302
 496:	2e 2f       	jc	$-418    	;abs 0x2f4
 498:	67 63       	addc.b	#2,	r7	;r3 As==10
 49a:	63 2d       	jc	$+712    	;abs 0x762
 49c:	34 2e       	jc	$-918    	;abs 0x106
 49e:	35 2e       	jc	$-916    	;abs 0x10a
 4a0:	33 2f       	jc	$-408    	;abs 0x308
 4a2:	67 63       	addc.b	#2,	r7	;r3 As==10
 4a4:	63 2f       	jc	$-312    	;abs 0x36c
 4a6:	63 6f       	.word	0x6f63;	????	Illegal as 2-op instr
 4a8:	6e 66       	addc.b	@r6,	r14	
 4aa:	69 67       	addc.b	@r7,	r9	
 4ac:	2f 6d       	addc	@r13,	r15	
 4ae:	73 70       	.word	0x7073;	????	Illegal as 2-op instr
 4b0:	34 33       	jn	$-406    	;abs 0x31a
 4b2:	30 00       	.word	0x0030;	????	
 4b4:	00 63       	adc	r0		
 4b6:	72 74       	subc.b	@r4+,	r2	
 4b8:	30 2e       	jc	$-926    	;abs 0x11a
 4ba:	53 00       	.word	0x0053;	????	
 4bc:	01 00       	.word	0x0001;	????	
 4be:	00 00       	.word	0x0000;	????	
 4c0:	00 03       	.word	0x0300;	????	
 4c2:	02 9c       	cmp	r12,	r2	
 4c4:	ff 03       	.word	0x03ff;	????	
 4c6:	b0 02       	.word	0x02b0;	????	
 4c8:	01 02       	.word	0x0201;	????	
 4ca:	02 00       	.word	0x0002;	????	
 4cc:	01 01       	.word	0x0101;	????	

Disassembly of section .debug_frame:

00000000 <.debug_frame>:
   0:	0e 00       	.word	0x000e;	????	
   2:	00 00       	.word	0x0000;	????	
   4:	ff ff ff ff 	and.b	@r15+,	-1(r15)	;0xffff(r15)
   8:	01 00       	.word	0x0001;	????	
   a:	01 7e       	subc	r14,	r1	
   c:	00 0c       	.word	0x0c00;	????	
   e:	01 02       	.word	0x0201;	????	
  10:	80 01       	.word	0x0180;	????	
  12:	0e 00       	.word	0x000e;	????	
  14:	00 00       	.word	0x0000;	????	
  16:	00 00       	.word	0x0000;	????	
  18:	00 00       	.word	0x0000;	????	
  1a:	d2 f8 70 00 	and.b	112(r8),&0x0e42	;0x0070(r8)
  1e:	42 0e 
  20:	04 8b       	sub	r11,	r4	
  22:	02 00       	.word	0x0002;	????	
  24:	12 00       	.word	0x0012;	????	
  26:	00 00       	.word	0x0000;	????	
  28:	00 00       	.word	0x0000;	????	
  2a:	00 00       	.word	0x0000;	????	
  2c:	42 f9       	and.b	r9,	r2	
  2e:	46 00       	.word	0x0046;	????	
  30:	42 0e       	.word	0x0e42;	????	
  32:	04 42       	mov	r2,	r4	
  34:	0e 06       	.word	0x060e;	????	
  36:	8a 03       	.word	0x038a;	????	
  38:	8b 02       	.word	0x028b;	????	
  3a:	08 00       	.word	0x0008;	????	
  3c:	00 00       	.word	0x0000;	????	
  3e:	00 00       	.word	0x0000;	????	
  40:	00 00       	.word	0x0000;	????	
  42:	88 f9 1a 00 	and	r9,	26(r8)	;0x001a(r8)
  46:	08 00       	.word	0x0008;	????	
  48:	00 00       	.word	0x0000;	????	
  4a:	00 00       	.word	0x0000;	????	
  4c:	00 00       	.word	0x0000;	????	
  4e:	a2 f9 3a 00 	and	@r9,	&0x003a	
  52:	0e 00       	.word	0x000e;	????	
  54:	00 00       	.word	0x0000;	????	
  56:	00 00       	.word	0x0000;	????	
  58:	00 00       	.word	0x0000;	????	
  5a:	dc f9 1a 00 	and.b	26(r9),	3650(r12);0x001a(r9), 0x0e42(r12)
  5e:	42 0e 
  60:	04 8b       	sub	r11,	r4	
  62:	02 00       	.word	0x0002;	????	
  64:	12 00       	.word	0x0012;	????	
  66:	00 00       	.word	0x0000;	????	
  68:	00 00       	.word	0x0000;	????	
  6a:	00 00       	.word	0x0000;	????	
  6c:	f6 f9 6a 00 	and.b	@r9+,	106(r6)	;0x006a(r6)
  70:	42 0e       	.word	0x0e42;	????	
  72:	04 42       	mov	r2,	r4	
  74:	0e 06       	.word	0x060e;	????	
  76:	8a 03       	.word	0x038a;	????	
  78:	8b 02       	.word	0x028b;	????	
  7a:	0e 00       	.word	0x000e;	????	
  7c:	00 00       	.word	0x0000;	????	
  7e:	00 00       	.word	0x0000;	????	
  80:	00 00       	.word	0x0000;	????	
  82:	2c fc       	and	@r12,	r12	
  84:	be 02       	.word	0x02be;	????	
  86:	42 0e       	.word	0x0e42;	????	
  88:	04 8b       	sub	r11,	r4	
  8a:	02 00       	.word	0x0002;	????	
  8c:	18 00       	.word	0x0018;	????	
  8e:	00 00       	.word	0x0000;	????	
  90:	00 00       	.word	0x0000;	????	
  92:	00 00       	.word	0x0000;	????	
  94:	ea fe 4e 00 	and.b	@r14,	78(r10)	;0x004e(r10)
  98:	42 0e       	.word	0x0e42;	????	
  9a:	04 42       	mov	r2,	r4	
  9c:	0e 06       	.word	0x060e;	????	
  9e:	42 0e       	.word	0x0e42;	????	
  a0:	08 8d       	sub	r13,	r8	
  a2:	04 8e       	sub	r14,	r4	
  a4:	03 8f       	.word	0x8f03;	????	Illegal as 2-op instr
  a6:	02 00       	.word	0x0002;	????	
  a8:	08 00       	.word	0x0008;	????	
  aa:	00 00       	.word	0x0000;	????	
  ac:	00 00       	.word	0x0000;	????	
  ae:	00 00       	.word	0x0000;	????	
  b0:	38 ff       	and	@r15+,	r8	
  b2:	12 00       	.word	0x0012;	????	
  b4:	08 00       	.word	0x0008;	????	
  b6:	00 00       	.word	0x0000;	????	
  b8:	00 00       	.word	0x0000;	????	
  ba:	00 00       	.word	0x0000;	????	
  bc:	4a ff       	and.b	r15,	r10	
  be:	22 00       	.word	0x0022;	????	
  c0:	08 00       	.word	0x0008;	????	
  c2:	00 00       	.word	0x0000;	????	
  c4:	00 00       	.word	0x0000;	????	
  c6:	00 00       	.word	0x0000;	????	
  c8:	6c ff       	and.b	@r15,	r12	
  ca:	22 00       	.word	0x0022;	????	
  cc:	08 00       	.word	0x0008;	????	
  ce:	00 00       	.word	0x0000;	????	
  d0:	00 00       	.word	0x0000;	????	
  d2:	00 00       	.word	0x0000;	????	
  d4:	38 f8       	and	@r8+,	r8	
  d6:	90 00       	.word	0x0090;	????	

Disassembly of section .debug_str:

00000000 <.debug_str>:
   0:	4c 63       	adc.b	r12		
   2:	64 54       	add.b	@r4,	r4	
   4:	65 73       	subc.b	#2,	r5	;r3 As==10
   6:	74 00       	.word	0x0074;	????	
   8:	4c 63       	adc.b	r12		
   a:	64 55       	add.b	@r5,	r4	
   c:	6e 49       	mov.b	@r9,	r14	
   e:	6e 69       	addc.b	@r9,	r14	
  10:	74 00       	.word	0x0074;	????	
  12:	47 4e       	mov.b	r14,	r7	
  14:	55 20       	jnz	$+172    	;abs 0xc0
  16:	43 20       	jnz	$+136    	;abs 0x9e
  18:	34 2e       	jc	$-918    	;abs 0xfc82
  1a:	35 2e       	jc	$-916    	;abs 0xfc86
  1c:	33 00       	.word	0x0033;	????	
  1e:	2a 5f       	add	@r15,	r10	
  20:	5f 54 41 43 	add.b	17217(r4),r15	;0x4341(r4)
  24:	43 52       	.word	0x5243;	????	Illegal as 2-op instr
  26:	30 00       	.word	0x0030;	????	
  28:	2a 5f       	add	@r15,	r10	
  2a:	5f 54 41 43 	add.b	17217(r4),r15	;0x4341(r4)
  2e:	43 52       	.word	0x5243;	????	Illegal as 2-op instr
  30:	31 00       	.word	0x0031;	????	
  32:	54 58 42 79 	add.b	31042(r8),r4	;0x7942(r8)
  36:	74 65       	addc.b	@r5+,	r4	
  38:	00 74       	subc	r4,	r0	
  3a:	61 31       	jn	$+708    	;abs 0x2fe
  3c:	5f 69 73 72 	addc.b	29299(r9),r15	;0x7273(r9)
  40:	00 4c       	br	r12		
  42:	63 64       	.word	0x6463;	????	Illegal as 2-op instr
  44:	49 6e       	addc.b	r14,	r9	
  46:	69 74       	subc.b	@r4,	r9	
  48:	00 64       	addc	r4,	r0	
  4a:	61 74       	subc.b	@r4,	r1	
  4c:	61 00       	.word	0x0061;	????	
  4e:	75 6e       	addc.b	@r14+,	r5	
  50:	73 69       	.word	0x6973;	????	Illegal as 2-op instr
  52:	67 6e       	addc.b	@r14,	r7	
  54:	65 64       	addc.b	@r4,	r5	
  56:	20 63       	addc	#2,	r0	;r3 As==10
  58:	68 61       	addc.b	@r1,	r8	
  5a:	72 00       	.word	0x0072;	????	
  5c:	64 65       	addc.b	@r5,	r4	
  5e:	6c 61       	addc.b	@r1,	r12	
  60:	79 5f       	add.b	@r15+,	r9	
  62:	6d 73       	subc.b	#2,	r13	;r3 As==10
  64:	00 4c       	br	r12		
  66:	63 64       	.word	0x6463;	????	Illegal as 2-op instr
  68:	57 72 69 74 	subc.b	&0x7469,r7	
  6c:	65 00       	.word	0x0065;	????	
  6e:	2a 5f       	add	@r15,	r10	
  70:	5f 50 31 49 	add.b	0x4931,	r15	;PC rel. 0x049a5
  74:	4e 00       	.word	0x004e;	????	
  76:	2a 5f       	add	@r15,	r10	
  78:	5f 54 41 43 	add.b	17217(r4),r15	;0x4341(r4)
  7c:	43 54       	.word	0x5443;	????	Illegal as 2-op instr
  7e:	4c 31       	jn	$+666    	;abs 0x318
  80:	00 2a       	jnc	$-1022   	;abs 0xfc82
  82:	5f 5f 44 43 	add.b	17220(r15),r15	;0x4344(r15)
  86:	4f 43       	clr.b	r15		
  88:	54 4c 00 2a 	mov.b	10752(r12),r4	;0x2a00(r12)
  8c:	5f 5f 54 41 	add.b	16724(r15),r15	;0x4154(r15)
  90:	43 54       	.word	0x5443;	????	Illegal as 2-op instr
  92:	4c 00       	.word	0x004c;	????	
  94:	6d 61       	addc.b	@r1,	r13	
  96:	69 6e       	addc.b	@r14,	r9	
  98:	00 75       	subc	r5,	r0	
  9a:	6e 73       	subc.b	#2,	r14	;r3 As==10
  9c:	69 67       	addc.b	@r7,	r9	
  9e:	6e 65       	addc.b	@r5,	r14	
  a0:	64 20       	jnz	$+202    	;abs 0x16a
  a2:	69 6e       	addc.b	@r14,	r9	
  a4:	74 00       	.word	0x0074;	????	
  a6:	73 65       	.word	0x6573;	????	Illegal as 2-op instr
  a8:	6e 64       	addc.b	@r4,	r14	
  aa:	00 2a       	jnc	$-1022   	;abs 0xfcac
  ac:	5f 5f 50 31 	add.b	12624(r15),r15	;0x3150(r15)
  b0:	44 49       	mov.b	r9,	r4	
  b2:	52 00       	.word	0x0052;	????	
  b4:	2a 5f       	add	@r15,	r10	
  b6:	5f 42 43 53 	mov.b	&0x5343,r15	
  ba:	43 54       	.word	0x5443;	????	Illegal as 2-op instr
  bc:	4c 31       	jn	$+666    	;abs 0x356
  be:	00 2f       	jc	$-510    	;abs 0xfec0
  c0:	68 6f       	addc.b	@r15,	r8	
  c2:	6d 65       	addc.b	@r5,	r13	
  c4:	2f 69       	addc	@r9,	r15	
  c6:	61 67       	addc.b	@r7,	r1	
  c8:	65 6e       	addc.b	@r14,	r5	
  ca:	74 2f       	jc	$-278    	;abs 0xffb4
  cc:	77 6f       	addc.b	@r15+,	r7	
  ce:	72 6b       	addc.b	@r11+,	r2	
  d0:	73 70       	.word	0x7073;	????	Illegal as 2-op instr
  d2:	61 63       	addc.b	#2,	r1	;r3 As==10
  d4:	65 2f       	jc	$-308    	;abs 0xffa0
  d6:	6d 61       	addc.b	@r1,	r13	
  d8:	6e 67       	addc.b	@r7,	r14	
  da:	61 2d       	jc	$+708    	;abs 0x39e
  dc:	73 63       	.word	0x6373;	????	Illegal as 2-op instr
  de:	72 65       	addc.b	@r5+,	r2	
  e0:	65 6e       	addc.b	@r14,	r5	
  e2:	2f 4d       	mov	@r13,	r15	
  e4:	53 50       	.word	0x5053;	????	Illegal as 2-op instr
  e6:	34 33       	jn	$-406    	;abs 0xff50
  e8:	30 00       	.word	0x0030;	????	
  ea:	2a 5f       	add	@r15,	r10	
  ec:	5f 50 31 53 	add.b	0x5331,	r15	;PC rel. 0x05421
  f0:	45 4c       	mov.b	r12,	r5	
  f2:	00 54       	add	r4,	r0	
  f4:	72 61       	addc.b	@r1+,	r2	
  f6:	6e 73       	subc.b	#2,	r14	;r3 As==10
  f8:	6d 69       	addc.b	@r9,	r13	
  fa:	74 00       	.word	0x0074;	????	
  fc:	2a 5f       	add	@r15,	r10	
  fe:	5f 43       	mov.b	#1,	r15	;r3 As==01
 100:	41 4c       	mov.b	r12,	r1	
 102:	44 43       	clr.b	r4		
 104:	4f 5f       	rla.b	r15		
 106:	31 4d       	mov	@r13+,	r1	
 108:	48 5a       	add.b	r10,	r8	
 10a:	00 2a       	jnc	$-1022   	;abs 0xfd0c
 10c:	5f 5f 54 41 	add.b	16724(r15),r15	;0x4154(r15)
 110:	43 43       	clr.b	#0		;r3 As==00
 112:	54 4c 30 00 	mov.b	48(r12),r4	;0x0030(r12)
 116:	6d 61       	addc.b	@r1,	r13	
 118:	69 6e       	addc.b	@r14,	r9	
 11a:	2e 63       	addc	#2,	r14	;r3 As==10
 11c:	00 42       	br	r2		
 11e:	69 74       	subc.b	@r4,	r9	
 120:	43 6e       	.word	0x6e43;	????	Illegal as 2-op instr
 122:	74 00       	.word	0x0074;	????	
 124:	5f 62 72 69 	addc.b	&0x6972,r15	
 128:	65 66       	addc.b	@r6,	r5	
 12a:	5f 70 61 75 	subc.b	0x7561,	r15	;PC rel. 0x0768f
 12e:	73 65       	.word	0x6573;	????	Illegal as 2-op instr
 130:	00 2a       	jnc	$-1022   	;abs 0xfd32
 132:	5f 5f 43 41 	add.b	16707(r15),r15	;0x4143(r15)
 136:	4c 42       	mov.b	r2,	r12	
 138:	43 31       	jn	$+648    	;abs 0x3c0
 13a:	5f 31       	jn	$+704    	;abs 0x3fa
 13c:	4d 48       	mov.b	r8,	r13	
 13e:	5a 00       	.word	0x005a;	????	
 140:	2a 5f       	add	@r15,	r10	
 142:	5f 57 44 54 	add.b	21572(r7),r15	;0x5444(r7)
 146:	43 54       	.word	0x5443;	????	Illegal as 2-op instr
 148:	4c 00       	.word	0x004c;	????	
 14a:	62 6c       	addc.b	@r12,	r2	
 14c:	5f 69 6e 69 	addc.b	26990(r9),r15	;0x696e(r9)
 150:	74 00       	.word	0x0074;	????	
 152:	2a 5f       	add	@r15,	r10	
 154:	5f 50 31 4f 	add.b	0x4f31,	r15	;PC rel. 0x05089
 158:	55 54 00 2a 	add.b	10752(r4),r5	;0x2a00(r4)
 15c:	5f 5f 54 41 	add.b	16724(r15),r15	;0x4154(r15)
 160:	52 00       	.word	0x0052;	????	
 162:	4c 63       	adc.b	r12		
 164:	64 52       	add.b	#4,	r4	;r2 As==10
 166:	65 61       	addc.b	@r1,	r5	
 168:	64 00       	.word	0x0064;	????	

Disassembly of section .debug_loc:

00000000 <.debug_loc>:
   0:	d2 f8 d4 f8 	and.b	-1836(r8),&0x0002	;0xf8d4(r8)
   4:	02 00 
   6:	71 02       	.word	0x0271;	????	
   8:	d4 f8 42 f9 	and.b	-1726(r8),2(r4)	;0xf942(r8), 0x0002(r4)
   c:	02 00 
   e:	71 04       	.word	0x0471;	????	
  10:	00 00       	.word	0x0000;	????	
  12:	00 00       	.word	0x0000;	????	
  14:	d2 f8 00 f9 	and.b	-1792(r8),&0x0001	;0xf900(r8)
  18:	01 00 
  1a:	5f 00       	.word	0x005f;	????	
  1c:	00 00       	.word	0x0000;	????	
  1e:	00 fc       	and	r12,	r0	
  20:	f8 00       	.word	0x00f8;	????	
  22:	f9 02       	.word	0x02f9;	????	
  24:	00 30       	jn	$+2      	;abs 0x26
  26:	9f 00       	.word	0x009f;	????	
  28:	00 00       	.word	0x0000;	????	
  2a:	00 42       	br	r2		
  2c:	f9 44 f9 02 	mov.b	@r4+,	761(r9)	;0x02f9(r9)
  30:	00 71       	subc	r1,	r0	
  32:	02 44       	mov	r4,	r2	
  34:	f9 46 f9 02 	mov.b	@r6+,	761(r9)	;0x02f9(r9)
  38:	00 71       	subc	r1,	r0	
  3a:	04 46       	mov	r6,	r4	
  3c:	f9 88 f9 02 	sub.b	@r8+,	761(r9)	;0x02f9(r9)
  40:	00 71       	subc	r1,	r0	
  42:	06 00       	.word	0x0006;	????	
  44:	00 00       	.word	0x0000;	????	
  46:	00 42       	br	r2		
  48:	f9 4e f9 01 	mov.b	@r14+,	505(r9)	;0x01f9(r9)
  4c:	00 5f       	add	r15,	r0	
  4e:	4e f9       	and.b	r9,	r14	
  50:	84 f9 01 00 	and	r9,	1(r4)	;0x0001(r4)
  54:	5a 00       	.word	0x005a;	????	
  56:	00 00       	.word	0x0000;	????	
  58:	00 48       	br	r8		
  5a:	f9 50 f9 02 	add.b	#761,	12288(r9);#0x02f9, 0x3000(r9)
  5e:	00 30 
  60:	9f 00       	.word	0x009f;	????	
  62:	00 00       	.word	0x0000;	????	
  64:	00 48       	br	r8		
  66:	f9 50 f9 02 	add.b	#761,	12288(r9);#0x02f9, 0x3000(r9)
  6a:	00 30 
  6c:	9f 72 f9 88 	subc	&0x88f9,505(r15);0x01f9(r15)
  70:	f9 01 
  72:	00 5f       	add	r15,	r0	
  74:	00 00       	.word	0x0000;	????	
  76:	00 00       	.word	0x0000;	????	
  78:	a2 f9 c0 f9 	and	@r9,	&0xf9c0	
  7c:	01 00       	.word	0x0001;	????	
  7e:	5f 00       	.word	0x005f;	????	
  80:	00 00       	.word	0x0000;	????	
  82:	00 dc       	bis	r12,	r0	
  84:	f9 de f9 02 	bis.b	@r14+,	761(r9)	;0x02f9(r9)
  88:	00 71       	subc	r1,	r0	
  8a:	02 de       	bis	r14,	r2	
  8c:	f9 f6 f9 02 	and.b	@r6+,	761(r9)	;0x02f9(r9)
  90:	00 71       	subc	r1,	r0	
  92:	04 00       	.word	0x0004;	????	
  94:	00 00       	.word	0x0000;	????	
  96:	00 dc       	bis	r12,	r0	
  98:	f9 e2 f9 01 	xor.b	#8,	505(r9)	;r2 As==11, 0x01f9(r9)
  9c:	00 5f       	add	r15,	r0	
  9e:	e2 f9 e8 f9 	and.b	@r9,	&0xf9e8	
  a2:	01 00       	.word	0x0001;	????	
  a4:	5b e8 f9 f4 	xor.b	-2823(r8),r11	;0xf4f9(r8)
  a8:	f9 01       	.word	0x01f9;	????	
  aa:	00 5b       	add	r11,	r0	
  ac:	00 00       	.word	0x0000;	????	
  ae:	00 00       	.word	0x0000;	????	
  b0:	f6 f9 f8 f9 	and.b	@r9+,	-1544(r6);0xf9f8(r6)
  b4:	02 00       	.word	0x0002;	????	
  b6:	71 02       	.word	0x0271;	????	
  b8:	f8 f9 fa f9 	and.b	@r9+,	-1542(r8);0xf9fa(r8)
  bc:	02 00       	.word	0x0002;	????	
  be:	71 04       	.word	0x0471;	????	
  c0:	fa f9 60 fa 	and.b	@r9+,	-1440(r10);0xfa60(r10)
  c4:	02 00       	.word	0x0002;	????	
  c6:	71 06       	.word	0x0671;	????	
  c8:	00 00       	.word	0x0000;	????	
  ca:	00 00       	.word	0x0000;	????	
  cc:	f6 f9 00 fa 	and.b	@r9+,	-1536(r6);0xfa00(r6)
  d0:	01 00       	.word	0x0001;	????	
  d2:	5f 00       	.word	0x005f;	????	
  d4:	fa 44 fa 01 	mov.b	@r4+,	506(r10);0x01fa(r10)
  d8:	00 5a       	add	r10,	r0	
  da:	4c fa       	and.b	r10,	r12	
  dc:	50 fa 01 00 	and.b	1(r10),	r0	;0x0001(r10)
  e0:	5a 00       	.word	0x005a;	????	
  e2:	00 00       	.word	0x0000;	????	
  e4:	00 2c       	jc	$+2      	;abs 0xe6
  e6:	fc 2e       	jc	$-518    	;abs 0xfee0
  e8:	fc 02       	.word	0x02fc;	????	
  ea:	00 71       	subc	r1,	r0	
  ec:	02 2e       	jc	$-1018   	;abs 0xfcf2
  ee:	fc ea fe 02 	xor.b	@r10+,	766(r12);0x02fe(r12)
  f2:	00 71       	subc	r1,	r0	
  f4:	04 00       	.word	0x0004;	????	
  f6:	00 00       	.word	0x0000;	????	
  f8:	00 da       	bis	r10,	r0	
  fa:	fc dd fc 01 	bis.b	@r13+,	508(r12);0x01fc(r12)
  fe:	00 5f       	add	r15,	r0	
 100:	dd fc fe fc 	and.b	-770(r12),1(r13)	;0xfcfe(r12), 0x0001(r13)
 104:	01 00 
 106:	5b 68 fd 6b 	addc.b	27645(r8),r11	;0x6bfd(r8)
 10a:	fd 01       	.word	0x01fd;	????	
 10c:	00 5f       	add	r15,	r0	
 10e:	6b fd       	and.b	@r13,	r11	
 110:	cc fd 01 00 	and.b	r13,	1(r12)	;0x0001(r12)
 114:	5b 26       	jz	$-840    	;abs 0xfdcc
 116:	fe 29       	jnc	$+1022   	;abs 0x514
 118:	fe 01       	.word	0x01fe;	????	
 11a:	00 5f       	add	r15,	r0	
 11c:	29 fe       	and	@r14,	r9	
 11e:	84 fe 01 00 	and	r14,	1(r4)	;0x0001(r4)
 122:	5b 00       	.word	0x005b;	????	
 124:	00 00       	.word	0x0000;	????	
 126:	00 ea       	xor	r10,	r0	
 128:	fe ec fe 02 	xor.b	@r12+,	766(r14);0x02fe(r14)
 12c:	00 71       	subc	r1,	r0	
 12e:	02 ec       	xor	r12,	r2	
 130:	fe ee fe 02 	xor.b	@r14+,	766(r14);0x02fe(r14)
 134:	00 71       	subc	r1,	r0	
 136:	04 ee       	xor	r14,	r4	
 138:	fe f0 fe 02 	and.b	#766,	28928(r14);#0x02fe, 0x7100(r14)
 13c:	00 71 
 13e:	06 f0       	and	r0,	r6	
 140:	fe 38       	jl	$+510    	;abs 0x33e
 142:	ff 02       	.word	0x02ff;	????	
 144:	00 71       	subc	r1,	r0	
 146:	08 00       	.word	0x0008;	????	
 148:	00 00       	.word	0x0000;	????	
 14a:	00 38       	jl	$+2      	;abs 0x14c
 14c:	ff 44 ff 01 	mov.b	@r4+,	511(r15);0x01ff(r15)
 150:	00 5f       	add	r15,	r0	
 152:	44 ff       	and.b	r15,	r4	
 154:	4a ff       	and.b	r15,	r10	
 156:	01 00       	.word	0x0001;	????	
 158:	5f 00       	.word	0x005f;	????	
 15a:	00 00       	.word	0x0000;	????	
 15c:	00 3c       	jmp	$+2      	;abs 0x15e
 15e:	ff 42 ff 04 	mov.b	#8,	1279(r15);r2 As==11, 0x04ff(r15)
 162:	00 0a       	.word	0x0a00;	????	
 164:	4d 01       	.word	0x014d;	????	
 166:	9f 00       	.word	0x009f;	????	
 168:	00 00       	.word	0x0000;	????	
	...

Disassembly of section .debug_pubtypes:

00000000 <.debug_pubtypes>:
   0:	0e 00       	.word	0x000e;	????	
   2:	00 00       	.word	0x0000;	????	
   4:	02 00       	.word	0x0002;	????	
   6:	00 00       	.word	0x0000;	????	
   8:	00 00       	.word	0x0000;	????	
   a:	89 04       	.word	0x0489;	????	
   c:	00 00       	.word	0x0000;	????	
   e:	00 00       	.word	0x0000;	????	
	...

Disassembly of section .debug_ranges:

00000000 <.debug_ranges>:
   0:	d2 f8 9b ff 	and.b	-101(r8),&0xf838	;0xff9b(r8)
   4:	38 f8 
   6:	c8 f8 00 00 	and.b	r8,	0(r8)	;0x0000(r8)
	...
